
========================================================================

** ELF Header Information

    File Name: dpf-demo-code.axf

    Machine class: ELFCLASS32 (32-bit)
    Data encoding: ELFDATA2LSB (Little endian)
    Header version: EV_CURRENT (Current version)
    File Type: ET_EXEC (Executable) (2)
    Machine: EM_ARM (ARM)

    Image Entry point: 0x31000000
    Flags: EF_ARM_HASENTRY + EF_ARM_SYMSARESORTED + EF_ARM_MAPSYMSFIRST (0x02000016)

    EABI conformance : ARM EABI Version 2.

    Built with
    ARM C Compiler, ADS1.2 [Build 805]
    ARM/Thumb Macro Assembler vsn ADS1.2 [Build 805]
    ARM Linker, ADS1.2 [Build 805] 

    Header size: 52 bytes (0x34)
    Program header entry size: 32 bytes (0x20)
    Section header entry size: 40 bytes (0x28)

    Program header entries: 1
    Section header entries: 16

    Program header offset: 47412 (0x0000b934)
    Section header offset: 47444 (0x0000b954)

    Section header string table index: 15

========================================================================

** Program header #0 (PT_LOAD) [PF_X + PF_W + PF_R + PF_ARM_ENTRY]
    Size : 12132 bytes (12028 bytes in file)
    Virtual address: 0x31000000


========================================================================

** Section #1 'ER_RO' (SHT_PROGBITS) [SHF_ALLOC + SHF_EXECINSTR]
    Size   : 12024 bytes (alignment 4)
    Address: 0x31000000

    $a
    demo
        0x31000000:    e3a000d2    ....    MOV      r0,#0xd2
        0x31000004:    e12ff000    ../.    MSR      CPSR_cxsf,r0
        0x31000008:    e3a0d5cc    ....    MOV      r13,#0x33000000
        0x3100000c:    e3a000d3    ....    MOV      r0,#0xd3
        0x31000010:    e12ff000    ../.    MSR      CPSR_cxsf,r0
        0x31000014:    e3a0d5d0    ....    MOV      r13,#0x34000000
        0x31000018:    ea000063    c...    B        mymain  ; 0x310001ac
    puts
    .text
        0x3100001c:    e92d4010    .@-.    STMFD    r13!,{r4,r14}
        0x31000020:    e1a04000    .@..    MOV      r4,r0
        0x31000024:    e1a00000    ....    NOP      
        0x31000028:    e5d40000    ....    LDRB     r0,[r4,#0]
        0x3100002c:    e3500000    ..P.    CMP      r0,#0
        0x31000030:    0a000008    ....    BEQ      0x31000058
        0x31000034:    e5d40000    ....    LDRB     r0,[r4,#0]
        0x31000038:    e350000a    ..P.    CMP      r0,#0xa
        0x3100003c:    1a000001    ....    BNE      0x31000048
        0x31000040:    e3a0000d    ....    MOV      r0,#0xd
        0x31000044:    eb000100    ....    BL       uart_putchar  ; 0x3100044c
        0x31000048:    e5d40000    ....    LDRB     r0,[r4,#0]
        0x3100004c:    eb0000fe    ....    BL       uart_putchar  ; 0x3100044c
        0x31000050:    e2844001    .@..    ADD      r4,r4,#1
        0x31000054:    eafffff3    ....    B        0x31000028
        0x31000058:    e3a00000    ....    MOV      r0,#0
        0x3100005c:    e8bd8010    ....    LDMFD    r13!,{r4,pc}
    dma_memcpy
        0x31000060:    e3a0344b    K4..    MOV      r3,#0x4b000000
        0x31000064:    e5830000    ....    STR      r0,[r3,#0]
        0x31000068:    e3a03000    .0..    MOV      r3,#0
        0x3100006c:    e3a0c44b    K...    MOV      r12,#0x4b000000
        0x31000070:    e58c3004    .0..    STR      r3,[r12,#4]
        0x31000074:    e3a0344b    K4..    MOV      r3,#0x4b000000
        0x31000078:    e5831008    ....    STR      r1,[r3,#8]
        0x3100007c:    e3a03000    .0..    MOV      r3,#0
        0x31000080:    e3a0c44b    K...    MOV      r12,#0x4b000000
        0x31000084:    e58c300c    .0..    STR      r3,[r12,#0xc]
        0x31000088:    e3823680    .6..    ORR      r3,r2,#0x8000000
        0x3100008c:    e3a0c44b    K...    MOV      r12,#0x4b000000
        0x31000090:    e58c3010    .0..    STR      r3,[r12,#0x10]
        0x31000094:    e3a03003    .0..    MOV      r3,#3
        0x31000098:    e3a0c44b    K...    MOV      r12,#0x4b000000
        0x3100009c:    e58c3020     0..    STR      r3,[r12,#0x20]
        0x310000a0:    e1a0f00e    ....    MOV      pc,r14
    dma_handler
        0x310000a4:    e92d500f    .P-.    STMFD    r13!,{r0-r3,r12,r14}
        0x310000a8:    e3a00a80    ....    MOV      r0,#0x80000
        0x310000ac:    e3a0144a    J...    MOV      r1,#0x4a000000
        0x310000b0:    e5810000    ....    STR      r0,[r1,#0]
        0x310000b4:    e3a00a80    ....    MOV      r0,#0x80000
        0x310000b8:    e3a0144a    J...    MOV      r1,#0x4a000000
        0x310000bc:    e5810010    ....    STR      r0,[r1,#0x10]
        0x310000c0:    e28f0084    ....    ADD      r0,pc,#0x84 ; #0x3100014c
        0x310000c4:    ebffffd4    ....    BL       puts  ; 0x3100001c
        0x310000c8:    e59f0098    ....    LDR      r0,0x31000168
        0x310000cc:    e5900000    ....    LDR      r0,[r0,#0]
        0x310000d0:    e2800980    ....    ADD      r0,r0,#0x200000
        0x310000d4:    e59f108c    ....    LDR      r1,0x31000168
        0x310000d8:    e5810000    ....    STR      r0,[r1,#0]
        0x310000dc:    e59f0088    ....    LDR      r0,0x3100016c
        0x310000e0:    e5900000    ....    LDR      r0,[r0,#0]
        0x310000e4:    e2400980    ..@.    SUB      r0,r0,#0x200000
        0x310000e8:    e59f107c    |...    LDR      r1,0x3100016c
        0x310000ec:    e5810000    ....    STR      r0,[r1,#0]
        0x310000f0:    e59f0074    t...    LDR      r0,0x3100016c
        0x310000f4:    e5900000    ....    LDR      r0,[r0,#0]
        0x310000f8:    e3500980    ..P.    CMP      r0,#0x200000
        0x310000fc:    ba000004    ....    BLT      0x31000114
        0x31000100:    e3a01980    ....    MOV      r1,#0x200000
        0x31000104:    e59f005c    \...    LDR      r0,0x31000168
        0x31000108:    e5900000    ....    LDR      r0,[r0,#0]
        0x3100010c:    eb000583    ....    BL       dma_play_wavdata  ; 0x31001720
        0x31000110:    ea00000b    ....    B        0x31000144
        0x31000114:    e59f0050    P...    LDR      r0,0x3100016c
        0x31000118:    e5900000    ....    LDR      r0,[r0,#0]
        0x3100011c:    e3500000    ..P.    CMP      r0,#0
        0x31000120:    ba000005    ....    BLT      0x3100013c
        0x31000124:    e59f0040    @...    LDR      r0,0x3100016c
        0x31000128:    e5901000    ....    LDR      r1,[r0,#0]
        0x3100012c:    e59f0034    4...    LDR      r0,0x31000168
        0x31000130:    e5900000    ....    LDR      r0,[r0,#0]
        0x31000134:    eb000579    y...    BL       dma_play_wavdata  ; 0x31001720
        0x31000138:    ea000001    ....    B        0x31000144
        0x3100013c:    e59f002c    ,...    LDR      r0,0x31000170
        0x31000140:    eb0005d0    ....    BL       dma_play_wav_bigfile  ; 0x31001888
        0x31000144:    e8bd500f    .P..    LDMFD    r13!,{r0-r3,r12,r14}
        0x31000148:    e25ef004    ..^.    SUBS     pc,r14,#4
    $d
        0x3100014c:    7172695e    ^irq    DCD    1903323486
        0x31000150:    414d4420     DMA    DCD    1095582752
        0x31000154:    616c7020     pla    DCD    1634496544
        0x31000158:    69662079    y fi    DCD    1768300665
        0x3100015c:    6873696e    nish    DCD    1752394094
        0x31000160:    0a216465    ed!.    DCD    169960549
        0x31000164:    00000000    ....    DCD    0
        0x31000168:    31002f00    ./.1    DCD    822095616
        0x3100016c:    31002efc    ...1    DCD    822095612
        0x31000170:    33300000    ..03    DCD    858783744
    delay
    $a
        0x31000174:    e3a00000    ....    MOV      r0,#0
        0x31000178:    e3a00000    ....    MOV      r0,#0
        0x3100017c:    e250ca49    I.P.    SUBS     r12,r0,#0x49000
        0x31000180:    a25ccff8    ..\.    SUBGES   r12,r12,#0x3e0
        0x31000184:    aa000001    ....    BGE      0x31000190
        0x31000188:    e2800001    ....    ADD      r0,r0,#1
        0x3100018c:    eafffffa    ....    B        0x3100017c
        0x31000190:    e1a0f00e    ....    MOV      pc,r14
    dma_clear_lcd
        0x31000194:    e52de004    ..-.    STR      r14,[r13,#-4]!
        0x31000198:    e59f21a4    .!..    LDR      r2,0x31000344
        0x3100019c:    e3a015c8    ....    MOV      r1,#0x32000000
        0x310001a0:    e3a005c0    ....    MOV      r0,#0x30000000
        0x310001a4:    ebffffad    ....    BL       dma_memcpy  ; 0x31000060
        0x310001a8:    e49df004    ....    LDR      pc,[r13],#4
    mymain
        0x310001ac:    e92d4010    .@-.    STMFD    r13!,{r4,r14}
        0x310001b0:    e3a04000    .@..    MOV      r4,#0
        0x310001b4:    e3540940    @.T.    CMP      r4,#0x100000
        0x310001b8:    aa000006    ....    BGE      0x310001d8
        0x310001bc:    ea000001    ....    B        0x310001c8
        0x310001c0:    e2844001    .@..    ADD      r4,r4,#1
        0x310001c4:    eafffffa    ....    B        0x310001b4
        0x310001c8:    e3a00000    ....    MOV      r0,#0
        0x310001cc:    e3a015c0    ....    MOV      r1,#0x30000000
        0x310001d0:    e7c10004    ....    STRB     r0,[r1,r4]
        0x310001d4:    eafffff9    ....    B        0x310001c0
        0x310001d8:    e28f0f5a    Z...    ADD      r0,pc,#0x168 ; #0x31000348
        0x310001dc:    ebffff8e    ....    BL       puts  ; 0x3100001c
        0x310001e0:    e28f0f5f    _...    ADD      r0,pc,#0x17c ; #0x31000364
        0x310001e4:    ebffff8c    ....    BL       puts  ; 0x3100001c
        0x310001e8:    eb0000f0    ....    BL       vga_init  ; 0x310005b0
        0x310001ec:    e28f0f5f    _...    ADD      r0,pc,#0x17c ; #0x31000370
        0x310001f0:    ebffff89    ....    BL       puts  ; 0x3100001c
        0x310001f4:    eb0000f5    ....    BL       lcd_init  ; 0x310005d0
        0x310001f8:    e3a00000    ....    MOV      r0,#0
        0x310001fc:    eb000129    )...    BL       lcd_clear_screen  ; 0x310006a8
        0x31000200:    e28f0f5d    ]...    ADD      r0,pc,#0x174 ; #0x3100037c
        0x31000204:    ebffff84    ....    BL       puts  ; 0x3100001c
        0x31000208:    e3a038ff    .8..    MOV      r3,#0xff0000
        0x3100020c:    e3a02f87    ./..    MOV      r2,#0x21c
        0x31000210:    e3a01064    d...    MOV      r1,#0x64
        0x31000214:    e3a00064    d...    MOV      r0,#0x64
        0x31000218:    eb000137    7...    BL       lcd_draw_hline  ; 0x310006fc
        0x3100021c:    e3a03cff    .<..    MOV      r3,#0xff00
        0x31000220:    e3a02f87    ./..    MOV      r2,#0x21c
        0x31000224:    e3a01064    d...    MOV      r1,#0x64
        0x31000228:    e3a000c8    ....    MOV      r0,#0xc8
        0x3100022c:    eb000132    2...    BL       lcd_draw_hline  ; 0x310006fc
        0x31000230:    e3a030ff    .0..    MOV      r3,#0xff
        0x31000234:    e3a02f87    ./..    MOV      r2,#0x21c
        0x31000238:    e3a01064    d...    MOV      r1,#0x64
        0x3100023c:    e3a00f4b    K...    MOV      r0,#0x12c
        0x31000240:    eb00012d    -...    BL       lcd_draw_hline  ; 0x310006fc
        0x31000244:    e3e034ff    .4..    MVN      r3,#0xff000000
        0x31000248:    e3a02f87    ./..    MOV      r2,#0x21c
        0x3100024c:    e3a01064    d...    MOV      r1,#0x64
        0x31000250:    e3a00f64    d...    MOV      r0,#0x190
        0x31000254:    eb000128    (...    BL       lcd_draw_hline  ; 0x310006fc
        0x31000258:    e3e034ff    .4..    MVN      r3,#0xff000000
        0x3100025c:    e59f2128    (!..    LDR      r2,0x3100038c
        0x31000260:    e3a01032    2...    MOV      r1,#0x32
        0x31000264:    e3a00f50    P...    MOV      r0,#0x140
        0x31000268:    eb000134    4...    BL       lcd_draw_vline  ; 0x31000740
        0x3100026c:    e3a02014    . ..    MOV      r2,#0x14
        0x31000270:    e3a01032    2...    MOV      r1,#0x32
        0x31000274:    e3a00032    2...    MOV      r0,#0x32
        0x31000278:    eb000141    A...    BL       lcd_draw_cross  ; 0x31000784
        0x3100027c:    e3a02014    . ..    MOV      r2,#0x14
        0x31000280:    e59f1108    ....    LDR      r1,0x31000390
        0x31000284:    e3a00032    2...    MOV      r0,#0x32
        0x31000288:    eb00013d    =...    BL       lcd_draw_cross  ; 0x31000784
        0x3100028c:    e3a02014    . ..    MOV      r2,#0x14
        0x31000290:    e3a01032    2...    MOV      r1,#0x32
        0x31000294:    e2810f5f    _...    ADD      r0,r1,#0x17c
        0x31000298:    eb000139    9...    BL       lcd_draw_cross  ; 0x31000784
        0x3100029c:    e3a02014    . ..    MOV      r2,#0x14
        0x310002a0:    e59f10e8    ....    LDR      r1,0x31000390
        0x310002a4:    e24100a0    ..A.    SUB      r0,r1,#0xa0
        0x310002a8:    eb000135    5...    BL       lcd_draw_cross  ; 0x31000784
        0x310002ac:    e28f00e0    ....    ADD      r0,pc,#0xe0 ; #0x31000394
        0x310002b0:    ebffff59    Y...    BL       puts  ; 0x3100001c
        0x310002b4:    e28f00e8    ....    ADD      r0,pc,#0xe8 ; #0x310003a4
        0x310002b8:    ebffff57    W...    BL       puts  ; 0x3100001c
        0x310002bc:    eb00039a    ....    BL       nand_init  ; 0x3100112c
        0x310002c0:    e28f00e8    ....    ADD      r0,pc,#0xe8 ; #0x310003b0
        0x310002c4:    ebffff54    T...    BL       puts  ; 0x3100001c
        0x310002c8:    e3a028d0    .(..    MOV      r2,#0xd00000
        0x310002cc:    e3a015cc    ....    MOV      r1,#0x33000000
        0x310002d0:    e3a00740    @...    MOV      r0,#0x1000000
        0x310002d4:    eb0003d1    ....    BL       nand_read  ; 0x31001220
        0x310002d8:    e28f00e4    ....    ADD      r0,pc,#0xe4 ; #0x310003c4
        0x310002dc:    ebffff4e    N...    BL       puts  ; 0x3100001c
        0x310002e0:    e3a02940    @)..    MOV      r2,#0x100000
        0x310002e4:    e51f117c    |...    LDR      r1,0x31000170
        0x310002e8:    e3a00780    ....    MOV      r0,#0x2000000
        0x310002ec:    eb0003cb    ....    BL       nand_read  ; 0x31001220
        0x310002f0:    e59f00e8    ....    LDR      r0,0x310003e0
        0x310002f4:    e3a01000    ....    MOV      r1,#0
        0x310002f8:    e5810018    ....    STR      r0,[r1,#0x18]
        0x310002fc:    e59f00e0    ....    LDR      r0,0x310003e4
        0x31000300:    e3a01000    ....    MOV      r1,#0
        0x31000304:    e5810020     ...    STR      r0,[r1,#0x20]
        0x31000308:    e3a0044a    J...    MOV      r0,#0x4a000000
        0x3100030c:    e5900008    ....    LDR      r0,[r0,#8]
        0x31000310:    e3c00a80    ....    BIC      r0,r0,#0x80000
        0x31000314:    e3a0144a    J...    MOV      r1,#0x4a000000
        0x31000318:    e5810008    ....    STR      r0,[r1,#8]
        0x3100031c:    e32ff053    S./.    MSR      CPSR_cxsf,#0x53
        0x31000320:    e1a00000    ....    NOP      
        0x31000324:    e1a00000    ....    NOP      
        0x31000328:    e28f00b8    ....    ADD      r0,pc,#0xb8 ; #0x310003e8
        0x3100032c:    ebffff3a    :...    BL       puts  ; 0x3100001c
        0x31000330:    e3a005cc    ....    MOV      r0,#0x33000000
        0x31000334:    eb000326    &...    BL       lcd_draw_bmp  ; 0x31000fd4
        0x31000338:    ebffff8d    ....    BL       delay  ; 0x31000174
        0x3100033c:    ebffff94    ....    BL       dma_clear_lcd  ; 0x31000194
        0x31000340:    eafffff7    ....    B        0x31000324
    $d
        0x31000344:    000fffff    ....    DCD    1048575
        0x31000348:    6f6f6275    uboo    DCD    1869570677
        0x3100034c:    6e692074    t in    DCD    1852383348
        0x31000350:    72207469    it r    DCD    1914729577
        0x31000354:    20736765    egs     DCD    544434021
        0x31000358:    696e6966    fini    DCD    1768843622
        0x3100035c:    64656873    shed    DCD    1684367475
        0x31000360:    00000a20     ...    DCD    2592
        0x31000364:    20616776    vga     DCD    543254390
        0x31000368:    74696e69    init    DCD    1953066601
        0x3100036c:    0000000a    ....    DCD    10
        0x31000370:    2064636c    lcd     DCD    543449964
        0x31000374:    74696e69    init    DCD    1953066601
        0x31000378:    0000000a    ....    DCD    10
        0x3100037c:    2064636c    lcd     DCD    543449964
        0x31000380:    77617264    draw    DCD    2002874980
        0x31000384:    6e696c20     lin    DCD    1852402720
        0x31000388:    00000a65    e...    DCD    2661
        0x3100038c:    000001ae    ....    DCD    430
        0x31000390:    0000024e    N...    DCD    590
        0x31000394:    2064636c    lcd     DCD    543449964
        0x31000398:    74736574    test    DCD    1953719668
        0x3100039c:    65766f20     ove    DCD    1702260512
        0x310003a0:    00000a72    r...    DCD    2674
        0x310003a4:    646e616e    nand    DCD    1684955502
        0x310003a8:    696e6920     ini    DCD    1768843552
        0x310003ac:    00000a74    t...    DCD    2676
        0x310003b0:    646e616e    nand    DCD    1684955502
        0x310003b4:    61657220     rea    DCD    1634038304
        0x310003b8:    6d622064    d bm    DCD    1835147364
        0x310003bc:    33312070    p 13    DCD    858857584
        0x310003c0:    00000a4d    M...    DCD    2637
        0x310003c4:    646e616e    nand    DCD    1684955502
        0x310003c8:    61657220     rea    DCD    1634038304
        0x310003cc:    6d622064    d bm    DCD    1835147364
        0x310003d0:    69662070    p fi    DCD    1768300656
        0x310003d4:    6873696e    nish    DCD    1752394094
        0x310003d8:    0a206465    ed .    DCD    169895013
        0x310003dc:    00000000    ....    DCD    0
        0x310003e0:    e59ff000    ....    DCD    3852464128
    $f
        0x310003e4:    310000a4    ...1    DCD    822083748
        0x310003e8:    6c696877    whil    DCD    1818847351
        0x310003ec:    72642065    e dr    DCD    1919164517
        0x310003f0:    62207761    aw b    DCD    1646294881
        0x310003f4:    6620706d    mp f    DCD    1713401965
        0x310003f8:    20656c69    ile     DCD    543517801
        0x310003fc:    0000000a    ....    DCD    10
    uart_init
    $a
    .text
        0x31000400:    e3a00456    V...    MOV      r0,#0x56000000
        0x31000404:    e5900070    p...    LDR      r0,[r0,#0x70]
        0x31000408:    e38000a0    ....    ORR      r0,r0,#0xa0
        0x3100040c:    e3a01456    V...    MOV      r1,#0x56000000
        0x31000410:    e5810070    p...    STR      r0,[r1,#0x70]
        0x31000414:    e3a00450    P...    MOV      r0,#0x50000000
        0x31000418:    e5900000    ....    LDR      r0,[r0,#0]
        0x3100041c:    e3800003    ....    ORR      r0,r0,#3
        0x31000420:    e3a01450    P...    MOV      r1,#0x50000000
        0x31000424:    e5810000    ....    STR      r0,[r1,#0]
        0x31000428:    e3a00450    P...    MOV      r0,#0x50000000
        0x3100042c:    e5900004    ....    LDR      r0,[r0,#4]
        0x31000430:    e3800005    ....    ORR      r0,r0,#5
        0x31000434:    e3a01450    P...    MOV      r1,#0x50000000
        0x31000438:    e5810004    ....    STR      r0,[r1,#4]
        0x3100043c:    e3a00026    &...    MOV      r0,#0x26
        0x31000440:    e3a01450    P...    MOV      r1,#0x50000000
        0x31000444:    e5810028    (...    STR      r0,[r1,#0x28]
        0x31000448:    e1a0f00e    ....    MOV      pc,r14
    uart_putchar
        0x3100044c:    e1a00000    ....    NOP      
        0x31000450:    e3a01450    P...    MOV      r1,#0x50000000
        0x31000454:    e5911010    ....    LDR      r1,[r1,#0x10]
        0x31000458:    e3110004    ....    TST      r1,#4
        0x3100045c:    0afffffb    ....    BEQ      0x31000450
        0x31000460:    e3a01450    P...    MOV      r1,#0x50000000
        0x31000464:    e5810020     ...    STR      r0,[r1,#0x20]
        0x31000468:    e1a0f00e    ....    MOV      pc,r14
    uart_getchar
        0x3100046c:    e1a00000    ....    NOP      
        0x31000470:    e3a01450    P...    MOV      r1,#0x50000000
        0x31000474:    e5911010    ....    LDR      r1,[r1,#0x10]
        0x31000478:    e3110001    ....    TST      r1,#1
        0x3100047c:    0afffffb    ....    BEQ      0x31000470
        0x31000480:    e3a01450    P...    MOV      r1,#0x50000000
        0x31000484:    e5911024    $...    LDR      r1,[r1,#0x24]
        0x31000488:    e20100ff    ....    AND      r0,r1,#0xff
        0x3100048c:    e1a0f00e    ....    MOV      pc,r14
    IIC_write
    .text
        0x31000490:    e3a03454    T4..    MOV      r3,#0x54000000
        0x31000494:    e583000c    ....    STR      r0,[r3,#0xc]
        0x31000498:    e3a030f0    .0..    MOV      r3,#0xf0
        0x3100049c:    e3a0c454    T...    MOV      r12,#0x54000000
        0x310004a0:    e58c3004    .0..    STR      r3,[r12,#4]
        0x310004a4:    e1a00000    ....    NOP      
        0x310004a8:    e3a03454    T4..    MOV      r3,#0x54000000
        0x310004ac:    e5933000    .0..    LDR      r3,[r3,#0]
        0x310004b0:    e3130010    ....    TST      r3,#0x10
        0x310004b4:    0afffffb    ....    BEQ      0x310004a8
        0x310004b8:    e1a00000    ....    NOP      
        0x310004bc:    e3a03454    T4..    MOV      r3,#0x54000000
        0x310004c0:    e5933004    .0..    LDR      r3,[r3,#4]
        0x310004c4:    e3130001    ....    TST      r3,#1
        0x310004c8:    1afffffb    ....    BNE      0x310004bc
        0x310004cc:    e3a03454    T4..    MOV      r3,#0x54000000
        0x310004d0:    e583100c    ....    STR      r1,[r3,#0xc]
        0x310004d4:    e3a030af    .0..    MOV      r3,#0xaf
        0x310004d8:    e3a0c454    T...    MOV      r12,#0x54000000
        0x310004dc:    e58c3000    .0..    STR      r3,[r12,#0]
        0x310004e0:    e1a00000    ....    NOP      
        0x310004e4:    e3a03454    T4..    MOV      r3,#0x54000000
        0x310004e8:    e5933000    .0..    LDR      r3,[r3,#0]
        0x310004ec:    e3130010    ....    TST      r3,#0x10
        0x310004f0:    0afffffb    ....    BEQ      0x310004e4
        0x310004f4:    e1a00000    ....    NOP      
        0x310004f8:    e3a03454    T4..    MOV      r3,#0x54000000
        0x310004fc:    e5933004    .0..    LDR      r3,[r3,#4]
        0x31000500:    e3130001    ....    TST      r3,#1
        0x31000504:    1afffffb    ....    BNE      0x310004f8
        0x31000508:    e3a03454    T4..    MOV      r3,#0x54000000
        0x3100050c:    e583200c    . ..    STR      r2,[r3,#0xc]
        0x31000510:    e3a030af    .0..    MOV      r3,#0xaf
        0x31000514:    e3a0c454    T...    MOV      r12,#0x54000000
        0x31000518:    e58c3000    .0..    STR      r3,[r12,#0]
        0x3100051c:    e1a00000    ....    NOP      
        0x31000520:    e3a03454    T4..    MOV      r3,#0x54000000
        0x31000524:    e5933000    .0..    LDR      r3,[r3,#0]
        0x31000528:    e3130010    ....    TST      r3,#0x10
        0x3100052c:    0afffffb    ....    BEQ      0x31000520
        0x31000530:    e1a00000    ....    NOP      
        0x31000534:    e3a03454    T4..    MOV      r3,#0x54000000
        0x31000538:    e5933004    .0..    LDR      r3,[r3,#4]
        0x3100053c:    e3130001    ....    TST      r3,#1
        0x31000540:    1afffffb    ....    BNE      0x31000534
        0x31000544:    e3a030d0    .0..    MOV      r3,#0xd0
        0x31000548:    e3a0c454    T...    MOV      r12,#0x54000000
        0x3100054c:    e58c3004    .0..    STR      r3,[r12,#4]
        0x31000550:    e3a030af    .0..    MOV      r3,#0xaf
        0x31000554:    e3a0c454    T...    MOV      r12,#0x54000000
        0x31000558:    e58c3000    .0..    STR      r3,[r12,#0]
        0x3100055c:    e1a0f00e    ....    MOV      pc,r14
    IIC_init
        0x31000560:    e3a00456    V...    MOV      r0,#0x56000000
        0x31000564:    e5900048    H...    LDR      r0,[r0,#0x48]
        0x31000568:    e3800cc0    ....    ORR      r0,r0,#0xc000
        0x3100056c:    e3a01456    V...    MOV      r1,#0x56000000
        0x31000570:    e5810048    H...    STR      r0,[r1,#0x48]
        0x31000574:    e3a00456    V...    MOV      r0,#0x56000000
        0x31000578:    e5900040    @...    LDR      r0,[r0,#0x40]
        0x3100057c:    e38004a0    ....    ORR      r0,r0,#0xa0000000
        0x31000580:    e3a01456    V...    MOV      r1,#0x56000000
        0x31000584:    e5810040    @...    STR      r0,[r1,#0x40]
        0x31000588:    e3a000af    ....    MOV      r0,#0xaf
        0x3100058c:    e3a01454    T...    MOV      r1,#0x54000000
        0x31000590:    e5810000    ....    STR      r0,[r1,#0]
        0x31000594:    e3a00010    ....    MOV      r0,#0x10
        0x31000598:    e3a01454    T...    MOV      r1,#0x54000000
        0x3100059c:    e5810008    ....    STR      r0,[r1,#8]
        0x310005a0:    e3a00010    ....    MOV      r0,#0x10
        0x310005a4:    e3a01454    T...    MOV      r1,#0x54000000
        0x310005a8:    e5810004    ....    STR      r0,[r1,#4]
        0x310005ac:    e1a0f00e    ....    MOV      pc,r14
    vga_init
        0x310005b0:    e52de004    ..-.    STR      r14,[r13,#-4]!
        0x310005b4:    ebffffe9    ....    BL       IIC_init  ; 0x31000560
        0x310005b8:    e3a02020      ..    MOV      r2,#0x20
        0x310005bc:    e3a01004    ....    MOV      r1,#4
        0x310005c0:    e3a000ea    ....    MOV      r0,#0xea
        0x310005c4:    ebffffb1    ....    BL       IIC_write  ; 0x31000490
        0x310005c8:    e3a00000    ....    MOV      r0,#0
        0x310005cc:    e49df004    ....    LDR      pc,[r13],#4
    lcd_init
    .text
        0x310005d0:    e59f0644    D...    LDR      r0,0x31000c1c
        0x310005d4:    e3a01456    V...    MOV      r1,#0x56000000
        0x310005d8:    e5810020     ...    STR      r0,[r1,#0x20]
        0x310005dc:    e3a01456    V...    MOV      r1,#0x56000000
        0x310005e0:    e5810030    0...    STR      r0,[r1,#0x30]
        0x310005e4:    e3a00f5e    ^...    MOV      r0,#0x178
        0x310005e8:    e3a0144d    M...    MOV      r1,#0x4d000000
        0x310005ec:    e5810000    ....    STR      r0,[r1,#0]
        0x310005f0:    e59f0628    (...    LDR      r0,0x31000c20
        0x310005f4:    e3a0144d    M...    MOV      r1,#0x4d000000
        0x310005f8:    e5810004    ....    STR      r0,[r1,#4]
        0x310005fc:    e59f0620     ...    LDR      r0,0x31000c24
        0x31000600:    e3a0144d    M...    MOV      r1,#0x4d000000
        0x31000604:    e5810008    ....    STR      r0,[r1,#8]
        0x31000608:    e3a0005d    ]...    MOV      r0,#0x5d
        0x3100060c:    e3a0144d    M...    MOV      r1,#0x4d000000
        0x31000610:    e581000c    ....    STR      r0,[r1,#0xc]
        0x31000614:    e2800eeb    ....    ADD      r0,r0,#0xeb0
        0x31000618:    e3a0144d    M...    MOV      r1,#0x4d000000
        0x3100061c:    e5810010    ....    STR      r0,[r1,#0x10]
        0x31000620:    e3a00564    d...    MOV      r0,#0x19000000
        0x31000624:    e3a0144d    M...    MOV      r1,#0x4d000000
        0x31000628:    e5810014    ....    STR      r0,[r1,#0x14]
        0x3100062c:    e2800a4b    K...    ADD      r0,r0,#0x4b000
        0x31000630:    e3a0144d    M...    MOV      r1,#0x4d000000
        0x31000634:    e5810018    ....    STR      r0,[r1,#0x18]
        0x31000638:    e3a00fa0    ....    MOV      r0,#0x280
        0x3100063c:    e3a0144d    M...    MOV      r1,#0x4d000000
        0x31000640:    e581001c    ....    STR      r0,[r1,#0x1c]
        0x31000644:    e3a0044d    M...    MOV      r0,#0x4d000000
        0x31000648:    e5900000    ....    LDR      r0,[r0,#0]
        0x3100064c:    e3800001    ....    ORR      r0,r0,#1
        0x31000650:    e3a0144d    M...    MOV      r1,#0x4d000000
        0x31000654:    e5810000    ....    STR      r0,[r1,#0]
        0x31000658:    e1a0f00e    ....    MOV      pc,r14
    lcd_draw_pixel
        0x3100065c:    e92d40f0    .@-.    STMFD    r13!,{r4-r7,r14}
        0x31000660:    e3a035c8    .5..    MOV      r3,#0x32000000
        0x31000664:    e1a06402    .d..    MOV      r6,r2,LSL #8
        0x31000668:    e1a0ec26    &...    MOV      r14,r6,LSR #24
        0x3100066c:    e1a06802    .h..    MOV      r6,r2,LSL #16
        0x31000670:    e1a04c26    &L..    MOV      r4,r6,LSR #24
        0x31000674:    e20250ff    .P..    AND      r5,r2,#0xff
        0x31000678:    e1a061ae    .a..    MOV      r6,r14,LSR #3
        0x3100067c:    e1a06586    .e..    MOV      r6,r6,LSL #11
        0x31000680:    e1a07124    $q..    MOV      r7,r4,LSR #2
        0x31000684:    e1866287    .b..    ORR      r6,r6,r7,LSL #5
        0x31000688:    e18661a5    .a..    ORR      r6,r6,r5,LSR #3
        0x3100068c:    e1a06806    .h..    MOV      r6,r6,LSL #16
        0x31000690:    e1a0c846    F...    MOV      r12,r6,ASR #16
        0x31000694:    e0806100    .a..    ADD      r6,r0,r0,LSL #2
        0x31000698:    e0816386    .c..    ADD      r6,r1,r6,LSL #7
        0x3100069c:    e0836086    .`..    ADD      r6,r3,r6,LSL #1
        0x310006a0:    e1c6c0b0    ....    STRH     r12,[r6,#0]
        0x310006a4:    e8bd80f0    ....    LDMFD    r13!,{r4-r7,pc}
    lcd_clear_screen
        0x310006a8:    e92d4070    p@-.    STMFD    r13!,{r4-r6,r14}
        0x310006ac:    e1a06000    .`..    MOV      r6,r0
        0x310006b0:    e3a05000    .P..    MOV      r5,#0
        0x310006b4:    e3550f78    x.U.    CMP      r5,#0x1e0
        0x310006b8:    aa00000e    ....    BGE      0x310006f8
        0x310006bc:    ea000001    ....    B        0x310006c8
        0x310006c0:    e2855001    .P..    ADD      r5,r5,#1
        0x310006c4:    eafffffa    ....    B        0x310006b4
        0x310006c8:    e3a04000    .@..    MOV      r4,#0
        0x310006cc:    e3540fa0    ..T.    CMP      r4,#0x280
        0x310006d0:    aa000007    ....    BGE      0x310006f4
        0x310006d4:    ea000001    ....    B        0x310006e0
        0x310006d8:    e2844001    .@..    ADD      r4,r4,#1
        0x310006dc:    eafffffa    ....    B        0x310006cc
        0x310006e0:    e1a02006    . ..    MOV      r2,r6
        0x310006e4:    e1a01004    ....    MOV      r1,r4
        0x310006e8:    e1a00005    ....    MOV      r0,r5
        0x310006ec:    ebffffda    ....    BL       lcd_draw_pixel  ; 0x3100065c
        0x310006f0:    eafffff8    ....    B        0x310006d8
        0x310006f4:    eafffff1    ....    B        0x310006c0
        0x310006f8:    e8bd8070    p...    LDMFD    r13!,{r4-r6,pc}
    lcd_draw_hline
        0x310006fc:    e92d41f0    .A-.    STMFD    r13!,{r4-r8,r14}
        0x31000700:    e1a07000    .p..    MOV      r7,r0
        0x31000704:    e1a05001    .P..    MOV      r5,r1
        0x31000708:    e1a06002    .`..    MOV      r6,r2
        0x3100070c:    e1a08003    ....    MOV      r8,r3
        0x31000710:    e1a04005    .@..    MOV      r4,r5
        0x31000714:    e1540006    ..T.    CMP      r4,r6
        0x31000718:    ca000007    ....    BGT      0x3100073c
        0x3100071c:    ea000001    ....    B        0x31000728
        0x31000720:    e2844001    .@..    ADD      r4,r4,#1
        0x31000724:    eafffffa    ....    B        0x31000714
        0x31000728:    e1a02008    . ..    MOV      r2,r8
        0x3100072c:    e1a01004    ....    MOV      r1,r4
        0x31000730:    e1a00007    ....    MOV      r0,r7
        0x31000734:    ebffffc8    ....    BL       lcd_draw_pixel  ; 0x3100065c
        0x31000738:    eafffff8    ....    B        0x31000720
        0x3100073c:    e8bd81f0    ....    LDMFD    r13!,{r4-r8,pc}
    lcd_draw_vline
        0x31000740:    e92d41f0    .A-.    STMFD    r13!,{r4-r8,r14}
        0x31000744:    e1a07000    .p..    MOV      r7,r0
        0x31000748:    e1a05001    .P..    MOV      r5,r1
        0x3100074c:    e1a06002    .`..    MOV      r6,r2
        0x31000750:    e1a08003    ....    MOV      r8,r3
        0x31000754:    e1a04005    .@..    MOV      r4,r5
        0x31000758:    e1540006    ..T.    CMP      r4,r6
        0x3100075c:    ca000007    ....    BGT      0x31000780
        0x31000760:    ea000001    ....    B        0x3100076c
        0x31000764:    e2844001    .@..    ADD      r4,r4,#1
        0x31000768:    eafffffa    ....    B        0x31000758
        0x3100076c:    e1a02008    . ..    MOV      r2,r8
        0x31000770:    e1a01007    ....    MOV      r1,r7
        0x31000774:    e1a00004    ....    MOV      r0,r4
        0x31000778:    ebffffb7    ....    BL       lcd_draw_pixel  ; 0x3100065c
        0x3100077c:    eafffff8    ....    B        0x31000764
        0x31000780:    e8bd81f0    ....    LDMFD    r13!,{r4-r8,pc}
    lcd_draw_cross
        0x31000784:    e92d40f0    .@-.    STMFD    r13!,{r4-r7,r14}
        0x31000788:    e1a05000    .P..    MOV      r5,r0
        0x3100078c:    e1a06001    .`..    MOV      r6,r1
        0x31000790:    e1a04002    .@..    MOV      r4,r2
        0x31000794:    e3a078ff    .x..    MOV      r7,#0xff0000
        0x31000798:    e0862004    . ..    ADD      r2,r6,r4
        0x3100079c:    e0461004    ..F.    SUB      r1,r6,r4
        0x310007a0:    e1a03007    .0..    MOV      r3,r7
        0x310007a4:    e1a00005    ....    MOV      r0,r5
        0x310007a8:    ebffffd3    ....    BL       lcd_draw_hline  ; 0x310006fc
        0x310007ac:    e0852004    . ..    ADD      r2,r5,r4
        0x310007b0:    e0451004    ..E.    SUB      r1,r5,r4
        0x310007b4:    e1a03007    .0..    MOV      r3,r7
        0x310007b8:    e1a00006    ....    MOV      r0,r6
        0x310007bc:    ebffffdf    ....    BL       lcd_draw_vline  ; 0x31000740
        0x310007c0:    e8bd80f0    ....    LDMFD    r13!,{r4-r7,pc}
    get_bmpfile_color
        0x310007c4:    e92d4030    0@-.    STMFD    r13!,{r4,r5,r14}
        0x310007c8:    e1a03000    .0..    MOV      r3,r0
        0x310007cc:    e0835103    .Q..    ADD      r5,r3,r3,LSL #2
        0x310007d0:    e0815385    .S..    ADD      r5,r1,r5,LSL #7
        0x310007d4:    e0855085    .P..    ADD      r5,r5,r5,LSL #1
        0x310007d8:    e7d2e005    ....    LDRB     r14,[r2,r5]
        0x310007dc:    e0835103    .Q..    ADD      r5,r3,r3,LSL #2
        0x310007e0:    e0815385    .S..    ADD      r5,r1,r5,LSL #7
        0x310007e4:    e0855085    .P..    ADD      r5,r5,r5,LSL #1
        0x310007e8:    e0855002    .P..    ADD      r5,r5,r2
        0x310007ec:    e5d54001    .@..    LDRB     r4,[r5,#1]
        0x310007f0:    e0835103    .Q..    ADD      r5,r3,r3,LSL #2
        0x310007f4:    e0815385    .S..    ADD      r5,r1,r5,LSL #7
        0x310007f8:    e0855085    .P..    ADD      r5,r5,r5,LSL #1
        0x310007fc:    e0855002    .P..    ADD      r5,r5,r2
        0x31000800:    e5d5c002    ....    LDRB     r12,[r5,#2]
        0x31000804:    e1a0580c    .X..    MOV      r5,r12,LSL #16
        0x31000808:    e1855404    .T..    ORR      r5,r5,r4,LSL #8
        0x3100080c:    e185000e    ....    ORR      r0,r5,r14
        0x31000810:    e8bd8030    0...    LDMFD    r13!,{r4,r5,pc}
    get_bmpfile_color_k
        0x31000814:    e92d000f    ..-.    STMFD    r13!,{r0-r3}
        0x31000818:    e92d47ff    .G-.    STMFD    r13!,{r0-r10,r14}
        0x3100081c:    e1a04000    .@..    MOV      r4,r0
        0x31000820:    e1a05001    .P..    MOV      r5,r1
        0x31000824:    e1a06002    .`..    MOV      r6,r2
        0x31000828:    e0840104    ....    ADD      r0,r4,r4,LSL #2
        0x3100082c:    e0850380    ....    ADD      r0,r5,r0,LSL #7
        0x31000830:    e0800080    ....    ADD      r0,r0,r0,LSL #1
        0x31000834:    e7d68000    ....    LDRB     r8,[r6,r0]
        0x31000838:    e0840104    ....    ADD      r0,r4,r4,LSL #2
        0x3100083c:    e0850380    ....    ADD      r0,r5,r0,LSL #7
        0x31000840:    e0800080    ....    ADD      r0,r0,r0,LSL #1
        0x31000844:    e0800006    ....    ADD      r0,r0,r6
        0x31000848:    e5d09001    ....    LDRB     r9,[r0,#1]
        0x3100084c:    e0840104    ....    ADD      r0,r4,r4,LSL #2
        0x31000850:    e0850380    ....    ADD      r0,r5,r0,LSL #7
        0x31000854:    e0800080    ....    ADD      r0,r0,r0,LSL #1
        0x31000858:    e0800006    ....    ADD      r0,r0,r6
        0x3100085c:    e5d07002    .p..    LDRB     r7,[r0,#2]
        0x31000860:    e1a00008    ....    MOV      r0,r8
        0x31000864:    eb000741    A...    BL       _dflt  ; 0x31002570
        0x31000868:    e88d0003    ....    STMIA    r13,{r0,r1}
        0x3100086c:    e28d303c    <0..    ADD      r3,r13,#0x3c
        0x31000870:    e893000c    ....    LDMIA    r3,{r2,r3}
        0x31000874:    eb000773    s...    BL       _dmul  ; 0x31002648
        0x31000878:    e28d2008    . ..    ADD      r2,r13,#8
        0x3100087c:    e8820003    ....    STMIA    r2,{r0,r1}
        0x31000880:    eb00070e    ....    BL       _dfixu  ; 0x310024c0
        0x31000884:    e20080ff    ....    AND      r8,r0,#0xff
        0x31000888:    e1a00009    ....    MOV      r0,r9
        0x3100088c:    eb000737    7...    BL       _dflt  ; 0x31002570
        0x31000890:    e88d0003    ....    STMIA    r13,{r0,r1}
        0x31000894:    e28d303c    <0..    ADD      r3,r13,#0x3c
        0x31000898:    e893000c    ....    LDMIA    r3,{r2,r3}
        0x3100089c:    eb000769    i...    BL       _dmul  ; 0x31002648
        0x310008a0:    e28d2008    . ..    ADD      r2,r13,#8
        0x310008a4:    e8820003    ....    STMIA    r2,{r0,r1}
        0x310008a8:    eb000704    ....    BL       _dfixu  ; 0x310024c0
        0x310008ac:    e20090ff    ....    AND      r9,r0,#0xff
        0x310008b0:    e1a00007    ....    MOV      r0,r7
        0x310008b4:    eb00072d    -...    BL       _dflt  ; 0x31002570
        0x310008b8:    e88d0003    ....    STMIA    r13,{r0,r1}
        0x310008bc:    e28d303c    <0..    ADD      r3,r13,#0x3c
        0x310008c0:    e893000c    ....    LDMIA    r3,{r2,r3}
        0x310008c4:    eb00075f    _...    BL       _dmul  ; 0x31002648
        0x310008c8:    e28d2008    . ..    ADD      r2,r13,#8
        0x310008cc:    e8820003    ....    STMIA    r2,{r0,r1}
        0x310008d0:    eb0006fa    ....    BL       _dfixu  ; 0x310024c0
        0x310008d4:    e20070ff    .p..    AND      r7,r0,#0xff
        0x310008d8:    e1a00807    ....    MOV      r0,r7,LSL #16
        0x310008dc:    e1800409    ....    ORR      r0,r0,r9,LSL #8
        0x310008e0:    e180a008    ....    ORR      r10,r0,r8
        0x310008e4:    e1a0000a    ....    MOV      r0,r10
        0x310008e8:    e28dd010    ....    ADD      r13,r13,#0x10
        0x310008ec:    e8bd07f0    ....    LDMFD    r13!,{r4-r10}
        0x310008f0:    e49df014    ....    LDR      pc,[r13],#0x14
    lcd_draw_bmp_eff1
        0x310008f4:    e92d41f0    .A-.    STMFD    r13!,{r4-r8,r14}
        0x310008f8:    e1a08000    ....    MOV      r8,r0
        0x310008fc:    e1a06008    .`..    MOV      r6,r8
        0x31000900:    e2866036    6`..    ADD      r6,r6,#0x36
        0x31000904:    e3a05000    .P..    MOV      r5,#0
        0x31000908:    e35500f0    ..U.    CMP      r5,#0xf0
        0x3100090c:    ca00001c    ....    BGT      0x31000984
        0x31000910:    ea000001    ....    B        0x3100091c
        0x31000914:    e2855001    .P..    ADD      r5,r5,#1
        0x31000918:    eafffffa    ....    B        0x31000908
        0x3100091c:    e3a04000    .@..    MOV      r4,#0
        0x31000920:    e3540fa0    ..T.    CMP      r4,#0x280
        0x31000924:    aa000015    ....    BGE      0x31000980
        0x31000928:    ea000001    ....    B        0x31000934
        0x3100092c:    e2844001    .@..    ADD      r4,r4,#1
        0x31000930:    eafffffa    ....    B        0x31000920
        0x31000934:    e1a02006    . ..    MOV      r2,r6
        0x31000938:    e1a01004    ....    MOV      r1,r4
        0x3100093c:    e1a00005    ....    MOV      r0,r5
        0x31000940:    ebffff9f    ....    BL       get_bmpfile_color  ; 0x310007c4
        0x31000944:    e1a07000    .p..    MOV      r7,r0
        0x31000948:    e2650f78    x.e.    RSB      r0,r5,#0x1e0
        0x3100094c:    e1a02007    . ..    MOV      r2,r7
        0x31000950:    e1a01004    ....    MOV      r1,r4
        0x31000954:    ebffff40    @...    BL       lcd_draw_pixel  ; 0x3100065c
        0x31000958:    e2650f78    x.e.    RSB      r0,r5,#0x1e0
        0x3100095c:    e1a02006    . ..    MOV      r2,r6
        0x31000960:    e1a01004    ....    MOV      r1,r4
        0x31000964:    ebffff96    ....    BL       get_bmpfile_color  ; 0x310007c4
        0x31000968:    e1a07000    .p..    MOV      r7,r0
        0x3100096c:    e1a02007    . ..    MOV      r2,r7
        0x31000970:    e1a01004    ....    MOV      r1,r4
        0x31000974:    e1a00005    ....    MOV      r0,r5
        0x31000978:    ebffff37    7...    BL       lcd_draw_pixel  ; 0x3100065c
        0x3100097c:    eaffffea    ....    B        0x3100092c
        0x31000980:    eaffffe3    ....    B        0x31000914
        0x31000984:    e8bd81f0    ....    LDMFD    r13!,{r4-r8,pc}
    lcd_draw_bmp_eff2
        0x31000988:    e92d41f0    .A-.    STMFD    r13!,{r4-r8,r14}
        0x3100098c:    e1a08000    ....    MOV      r8,r0
        0x31000990:    e1a06008    .`..    MOV      r6,r8
        0x31000994:    e2866036    6`..    ADD      r6,r6,#0x36
        0x31000998:    e3a05000    .P..    MOV      r5,#0
        0x3100099c:    e3550f50    P.U.    CMP      r5,#0x140
        0x310009a0:    ca00001c    ....    BGT      0x31000a18
        0x310009a4:    ea000001    ....    B        0x310009b0
        0x310009a8:    e2855001    .P..    ADD      r5,r5,#1
        0x310009ac:    eafffffa    ....    B        0x3100099c
        0x310009b0:    e3a04000    .@..    MOV      r4,#0
        0x310009b4:    e3540f78    x.T.    CMP      r4,#0x1e0
        0x310009b8:    aa000015    ....    BGE      0x31000a14
        0x310009bc:    ea000001    ....    B        0x310009c8
        0x310009c0:    e2844001    .@..    ADD      r4,r4,#1
        0x310009c4:    eafffffa    ....    B        0x310009b4
        0x310009c8:    e1a02006    . ..    MOV      r2,r6
        0x310009cc:    e1a01005    ....    MOV      r1,r5
        0x310009d0:    e1a00004    ....    MOV      r0,r4
        0x310009d4:    ebffff7a    z...    BL       get_bmpfile_color  ; 0x310007c4
        0x310009d8:    e1a07000    .p..    MOV      r7,r0
        0x310009dc:    e2640f78    x.d.    RSB      r0,r4,#0x1e0
        0x310009e0:    e1a02007    . ..    MOV      r2,r7
        0x310009e4:    e1a01005    ....    MOV      r1,r5
        0x310009e8:    ebffff1b    ....    BL       lcd_draw_pixel  ; 0x3100065c
        0x310009ec:    e2651fa0    ..e.    RSB      r1,r5,#0x280
        0x310009f0:    e1a02006    . ..    MOV      r2,r6
        0x310009f4:    e1a00004    ....    MOV      r0,r4
        0x310009f8:    ebffff71    q...    BL       get_bmpfile_color  ; 0x310007c4
        0x310009fc:    e1a07000    .p..    MOV      r7,r0
        0x31000a00:    e2651fa0    ..e.    RSB      r1,r5,#0x280
        0x31000a04:    e2640f78    x.d.    RSB      r0,r4,#0x1e0
        0x31000a08:    e1a02007    . ..    MOV      r2,r7
        0x31000a0c:    ebffff12    ....    BL       lcd_draw_pixel  ; 0x3100065c
        0x31000a10:    eaffffea    ....    B        0x310009c0
        0x31000a14:    eaffffe3    ....    B        0x310009a8
        0x31000a18:    e8bd81f0    ....    LDMFD    r13!,{r4-r8,pc}
    lcd_draw_bmp_eff3
        0x31000a1c:    e92d41f0    .A-.    STMFD    r13!,{r4-r8,r14}
        0x31000a20:    e24dd028    (.M.    SUB      r13,r13,#0x28
        0x31000a24:    e1a08000    ....    MOV      r8,r0
        0x31000a28:    e1a06008    .`..    MOV      r6,r8
        0x31000a2c:    e28f0f7d    }...    ADD      r0,pc,#0x1f4 ; #0x31000c28
        0x31000a30:    e5901000    ....    LDR      r1,[r0,#0]
        0x31000a34:    e5900004    ....    LDR      r0,[r0,#4]
        0x31000a38:    e58d0024    $...    STR      r0,[r13,#0x24]
        0x31000a3c:    e58d1020     ...    STR      r1,[r13,#0x20]
        0x31000a40:    e2866036    6`..    ADD      r6,r6,#0x36
        0x31000a44:    e28f0f79    y...    ADD      r0,pc,#0x1e4 ; #0x31000c30
        0x31000a48:    e5901000    ....    LDR      r1,[r0,#0]
        0x31000a4c:    e5900004    ....    LDR      r0,[r0,#4]
        0x31000a50:    e58d0024    $...    STR      r0,[r13,#0x24]
        0x31000a54:    e58d1020     ...    STR      r1,[r13,#0x20]
        0x31000a58:    e28f0f76    v...    ADD      r0,pc,#0x1d8 ; #0x31000c38
        0x31000a5c:    e890000c    ....    LDMIA    r0,{r2,r3}
        0x31000a60:    e28d1020     ...    ADD      r1,r13,#0x20
        0x31000a64:    e8910003    ....    LDMIA    r1,{r0,r1}
        0x31000a68:    eb0006f6    ....    BL       _dmul  ; 0x31002648
        0x31000a6c:    e28d2008    . ..    ADD      r2,r13,#8
        0x31000a70:    e8820003    ....    STMIA    r2,{r0,r1}
        0x31000a74:    e28f0f6d    m...    ADD      r0,pc,#0x1b4 ; #0x31000c30
        0x31000a78:    e890000c    ....    LDMIA    r0,{r2,r3}
        0x31000a7c:    e59d0008    ....    LDR      r0,[r13,#8]
        0x31000a80:    eb0006f0    ....    BL       _dmul  ; 0x31002648
        0x31000a84:    e28d2010    . ..    ADD      r2,r13,#0x10
        0x31000a88:    e8820003    ....    STMIA    r2,{r0,r1}
        0x31000a8c:    e28f0f6b    k...    ADD      r0,pc,#0x1ac ; #0x31000c40
        0x31000a90:    e890000c    ....    LDMIA    r0,{r2,r3}
        0x31000a94:    e59d0010    ....    LDR      r0,[r13,#0x10]
        0x31000a98:    eb000583    ....    BL       _drsb  ; 0x310020ac
        0x31000a9c:    e28d2018    . ..    ADD      r2,r13,#0x18
        0x31000aa0:    e8820003    ....    STMIA    r2,{r0,r1}
        0x31000aa4:    eb00065c    \...    BL       _dfix  ; 0x3100241c
        0x31000aa8:    e1a05000    .P..    MOV      r5,r0
        0x31000aac:    e1a00005    ....    MOV      r0,r5
        0x31000ab0:    eb0006ae    ....    BL       _dflt  ; 0x31002570
        0x31000ab4:    e28d2018    . ..    ADD      r2,r13,#0x18
        0x31000ab8:    e8820003    ....    STMIA    r2,{r0,r1}
        0x31000abc:    e28f0f5d    ]...    ADD      r0,pc,#0x174 ; #0x31000c38
        0x31000ac0:    e890000c    ....    LDMIA    r0,{r2,r3}
        0x31000ac4:    e28d1020     ...    ADD      r1,r13,#0x20
        0x31000ac8:    e8910003    ....    LDMIA    r1,{r0,r1}
        0x31000acc:    eb0006dd    ....    BL       _dmul  ; 0x31002648
        0x31000ad0:    e88d0003    ....    STMIA    r13,{r0,r1}
        0x31000ad4:    e28f0f55    U...    ADD      r0,pc,#0x154 ; #0x31000c30
        0x31000ad8:    e890000c    ....    LDMIA    r0,{r2,r3}
        0x31000adc:    e59d0000    ....    LDR      r0,[r13,#0]
        0x31000ae0:    eb0006d8    ....    BL       _dmul  ; 0x31002648
        0x31000ae4:    e28d2008    . ..    ADD      r2,r13,#8
        0x31000ae8:    e8820003    ....    STMIA    r2,{r0,r1}
        0x31000aec:    e28f0f53    S...    ADD      r0,pc,#0x14c ; #0x31000c40
        0x31000af0:    e890000c    ....    LDMIA    r0,{r2,r3}
        0x31000af4:    e59d0008    ....    LDR      r0,[r13,#8]
        0x31000af8:    eb0004f0    ....    BL       _dadd  ; 0x31001ec0
        0x31000afc:    e28d2010    . ..    ADD      r2,r13,#0x10
        0x31000b00:    e8820003    ....    STMIA    r2,{r0,r1}
        0x31000b04:    e28d3018    .0..    ADD      r3,r13,#0x18
        0x31000b08:    e893000c    ....    LDMIA    r3,{r2,r3}
        0x31000b0c:    eb0006ad    ....    BL       _dcmpge  ; 0x310025c8
        0x31000b10:    9a00003f    ?...    BLS      0x31000c14
        0x31000b14:    ea000001    ....    B        0x31000b20
        0x31000b18:    e2855001    .P..    ADD      r5,r5,#1
        0x31000b1c:    eaffffe2    ....    B        0x31000aac
        0x31000b20:    e28f0f48    H...    ADD      r0,pc,#0x120 ; #0x31000c48
        0x31000b24:    e890000c    ....    LDMIA    r0,{r2,r3}
        0x31000b28:    e28d1020     ...    ADD      r1,r13,#0x20
        0x31000b2c:    e8910003    ....    LDMIA    r1,{r0,r1}
        0x31000b30:    eb0006c4    ....    BL       _dmul  ; 0x31002648
        0x31000b34:    e28d2008    . ..    ADD      r2,r13,#8
        0x31000b38:    e8820003    ....    STMIA    r2,{r0,r1}
        0x31000b3c:    e28f00ec    ....    ADD      r0,pc,#0xec ; #0x31000c30
        0x31000b40:    e890000c    ....    LDMIA    r0,{r2,r3}
        0x31000b44:    e59d0008    ....    LDR      r0,[r13,#8]
        0x31000b48:    eb0006be    ....    BL       _dmul  ; 0x31002648
        0x31000b4c:    e28d2010    . ..    ADD      r2,r13,#0x10
        0x31000b50:    e8820003    ....    STMIA    r2,{r0,r1}
        0x31000b54:    e28f00f4    ....    ADD      r0,pc,#0xf4 ; #0x31000c50
        0x31000b58:    e890000c    ....    LDMIA    r0,{r2,r3}
        0x31000b5c:    e59d0010    ....    LDR      r0,[r13,#0x10]
        0x31000b60:    eb000551    Q...    BL       _drsb  ; 0x310020ac
        0x31000b64:    e28d2018    . ..    ADD      r2,r13,#0x18
        0x31000b68:    e8820003    ....    STMIA    r2,{r0,r1}
        0x31000b6c:    eb00062a    *...    BL       _dfix  ; 0x3100241c
        0x31000b70:    e1a04000    .@..    MOV      r4,r0
        0x31000b74:    e1a00004    ....    MOV      r0,r4
        0x31000b78:    eb00067c    |...    BL       _dflt  ; 0x31002570
        0x31000b7c:    e28d2018    . ..    ADD      r2,r13,#0x18
        0x31000b80:    e8820003    ....    STMIA    r2,{r0,r1}
        0x31000b84:    e28f00bc    ....    ADD      r0,pc,#0xbc ; #0x31000c48
        0x31000b88:    e890000c    ....    LDMIA    r0,{r2,r3}
        0x31000b8c:    e28d1020     ...    ADD      r1,r13,#0x20
        0x31000b90:    e8910003    ....    LDMIA    r1,{r0,r1}
        0x31000b94:    eb0006ab    ....    BL       _dmul  ; 0x31002648
        0x31000b98:    e88d0003    ....    STMIA    r13,{r0,r1}
        0x31000b9c:    e28f008c    ....    ADD      r0,pc,#0x8c ; #0x31000c30
        0x31000ba0:    e890000c    ....    LDMIA    r0,{r2,r3}
        0x31000ba4:    e59d0000    ....    LDR      r0,[r13,#0]
        0x31000ba8:    eb0006a6    ....    BL       _dmul  ; 0x31002648
        0x31000bac:    e28d2008    . ..    ADD      r2,r13,#8
        0x31000bb0:    e8820003    ....    STMIA    r2,{r0,r1}
        0x31000bb4:    e28f0094    ....    ADD      r0,pc,#0x94 ; #0x31000c50
        0x31000bb8:    e890000c    ....    LDMIA    r0,{r2,r3}
        0x31000bbc:    e59d0008    ....    LDR      r0,[r13,#8]
        0x31000bc0:    eb0004be    ....    BL       _dadd  ; 0x31001ec0
        0x31000bc4:    e28d2010    . ..    ADD      r2,r13,#0x10
        0x31000bc8:    e8820003    ....    STMIA    r2,{r0,r1}
        0x31000bcc:    e28d3018    .0..    ADD      r3,r13,#0x18
        0x31000bd0:    e893000c    ....    LDMIA    r3,{r2,r3}
        0x31000bd4:    eb00067b    {...    BL       _dcmpge  ; 0x310025c8
        0x31000bd8:    9a00000c    ....    BLS      0x31000c10
        0x31000bdc:    ea000001    ....    B        0x31000be8
        0x31000be0:    e2844001    .@..    ADD      r4,r4,#1
        0x31000be4:    eaffffe2    ....    B        0x31000b74
        0x31000be8:    e1a02006    . ..    MOV      r2,r6
        0x31000bec:    e1a01004    ....    MOV      r1,r4
        0x31000bf0:    e1a00005    ....    MOV      r0,r5
        0x31000bf4:    ebfffef2    ....    BL       get_bmpfile_color  ; 0x310007c4
        0x31000bf8:    e1a07000    .p..    MOV      r7,r0
        0x31000bfc:    e2650f78    x.e.    RSB      r0,r5,#0x1e0
        0x31000c00:    e1a02007    . ..    MOV      r2,r7
        0x31000c04:    e1a01004    ....    MOV      r1,r4
        0x31000c08:    ebfffe93    ....    BL       lcd_draw_pixel  ; 0x3100065c
        0x31000c0c:    eafffff3    ....    B        0x31000be0
        0x31000c10:    eaffffc0    ....    B        0x31000b18
        0x31000c14:    e28dd028    (...    ADD      r13,r13,#0x28
        0x31000c18:    e8bd81f0    ....    LDMFD    r13!,{r4-r8,pc}
    $d
        0x31000c1c:    aaaaaaaa    ....    DCD    2863311530
        0x31000c20:    1f77c281    ..w.    DCD    527942273
        0x31000c24:    01727f17    ..r.    DCD    24280855
        0x31000c28:    00000000    ....    DCD    0
        0x31000c2c:    00000000    ....    DCD    0
        0x31000c30:    00000000    ....    DCD    0
        0x31000c34:    3fe00000    ...?    DCD    1071644672
        0x31000c38:    00000000    ....    DCD    0
        0x31000c3c:    407e0000    ..~@    DCD    1081999360
        0x31000c40:    00000000    ....    DCD    0
        0x31000c44:    406e0000    ..n@    DCD    1080950784
        0x31000c48:    00000000    ....    DCD    0
        0x31000c4c:    40840000    ...@    DCD    1082392576
        0x31000c50:    00000000    ....    DCD    0
        0x31000c54:    40740000    ..t@    DCD    1081344000
    lcd_draw_bmp_eff4
    $a
        0x31000c58:    e92d4ff1    .O-.    STMFD    r13!,{r0,r4-r11,r14}
        0x31000c5c:    e24dd018    ..M.    SUB      r13,r13,#0x18
        0x31000c60:    e59d9018    ....    LDR      r9,[r13,#0x18]
        0x31000c64:    e3a0a00a    ....    MOV      r10,#0xa
        0x31000c68:    e3a005c8    ....    MOV      r0,#0x32000000
        0x31000c6c:    e58d0014    ....    STR      r0,[r13,#0x14]
        0x31000c70:    e2899036    6...    ADD      r9,r9,#0x36
        0x31000c74:    e3a0a000    ....    MOV      r10,#0
        0x31000c78:    e35a000a    ..Z.    CMP      r10,#0xa
        0x31000c7c:    aa0000ca    ....    BGE      0x31000fac
        0x31000c80:    ea000001    ....    B        0x31000c8c
        0x31000c84:    e28aa002    ....    ADD      r10,r10,#2
        0x31000c88:    eafffffa    ....    B        0x31000c78
        0x31000c8c:    e3a07000    .p..    MOV      r7,#0
        0x31000c90:    e3570f78    x.W.    CMP      r7,#0x1e0
        0x31000c94:    aa0000c3    ....    BGE      0x31000fa8
        0x31000c98:    ea000001    ....    B        0x31000ca4
        0x31000c9c:    e2877001    .p..    ADD      r7,r7,#1
        0x31000ca0:    eafffffa    ....    B        0x31000c90
        0x31000ca4:    e3a08000    ....    MOV      r8,#0
        0x31000ca8:    e3580fa0    ..X.    CMP      r8,#0x280
        0x31000cac:    aa0000bc    ....    BGE      0x31000fa4
        0x31000cb0:    ea000001    ....    B        0x31000cbc
        0x31000cb4:    e2888001    ....    ADD      r8,r8,#1
        0x31000cb8:    eafffffa    ....    B        0x31000ca8
        0x31000cbc:    e0870107    ....    ADD      r0,r7,r7,LSL #2
        0x31000cc0:    e0880380    ....    ADD      r0,r8,r0,LSL #7
        0x31000cc4:    e0800080    ....    ADD      r0,r0,r0,LSL #1
        0x31000cc8:    e7d95000    .P..    LDRB     r5,[r9,r0]
        0x31000ccc:    e0870107    ....    ADD      r0,r7,r7,LSL #2
        0x31000cd0:    e0880380    ....    ADD      r0,r8,r0,LSL #7
        0x31000cd4:    e0800080    ....    ADD      r0,r0,r0,LSL #1
        0x31000cd8:    e0800009    ....    ADD      r0,r0,r9
        0x31000cdc:    e5d06001    .`..    LDRB     r6,[r0,#1]
        0x31000ce0:    e0870107    ....    ADD      r0,r7,r7,LSL #2
        0x31000ce4:    e0880380    ....    ADD      r0,r8,r0,LSL #7
        0x31000ce8:    e0800080    ....    ADD      r0,r0,r0,LSL #1
        0x31000cec:    e0800009    ....    ADD      r0,r0,r9
        0x31000cf0:    e5d04002    .@..    LDRB     r4,[r0,#2]
        0x31000cf4:    e35a000a    ..Z.    CMP      r10,#0xa
        0x31000cf8:    908ff10a    ....    ADDLS    pc,pc,r10,LSL #2
        0x31000cfc:    ea00009a    ....    B        0x31000f6c
        0x31000d00:    ea000009    ....    B        0x31000d2c
        0x31000d04:    ea000098    ....    B        0x31000f6c
        0x31000d08:    ea00000b    ....    B        0x31000d3c
        0x31000d0c:    ea000096    ....    B        0x31000f6c
        0x31000d10:    ea00002b    +...    B        0x31000dc4
        0x31000d14:    ea000094    ....    B        0x31000f6c
        0x31000d18:    ea00004b    K...    B        0x31000e4c
        0x31000d1c:    ea000092    ....    B        0x31000f6c
        0x31000d20:    ea00006b    k...    B        0x31000ed4
        0x31000d24:    ea000090    ....    B        0x31000f6c
        0x31000d28:    ea00008b    ....    B        0x31000f5c
        0x31000d2c:    e3a05000    .P..    MOV      r5,#0
        0x31000d30:    e3a06000    .`..    MOV      r6,#0
        0x31000d34:    e3a04000    .@..    MOV      r4,#0
        0x31000d38:    ea00008b    ....    B        0x31000f6c
        0x31000d3c:    e1a00005    ....    MOV      r0,r5
        0x31000d40:    eb00060a    ....    BL       _dflt  ; 0x31002570
        0x31000d44:    e98d0003    ....    STMIB    r13,{r0,r1}
        0x31000d48:    e28f0f99    ....    ADD      r0,pc,#0x264 ; #0x31000fb4
        0x31000d4c:    e890000c    ....    LDMIA    r0,{r2,r3}
        0x31000d50:    e59d0004    ....    LDR      r0,[r13,#4]
        0x31000d54:    eb00063b    ;...    BL       _dmul  ; 0x31002648
        0x31000d58:    e28d200c    . ..    ADD      r2,r13,#0xc
        0x31000d5c:    e8820003    ....    STMIA    r2,{r0,r1}
        0x31000d60:    eb0005d6    ....    BL       _dfixu  ; 0x310024c0
        0x31000d64:    e20050ff    .P..    AND      r5,r0,#0xff
        0x31000d68:    e1a00006    ....    MOV      r0,r6
        0x31000d6c:    eb0005ff    ....    BL       _dflt  ; 0x31002570
        0x31000d70:    e98d0003    ....    STMIB    r13,{r0,r1}
        0x31000d74:    e28f0f8e    ....    ADD      r0,pc,#0x238 ; #0x31000fb4
        0x31000d78:    e890000c    ....    LDMIA    r0,{r2,r3}
        0x31000d7c:    e59d0004    ....    LDR      r0,[r13,#4]
        0x31000d80:    eb000630    0...    BL       _dmul  ; 0x31002648
        0x31000d84:    e28d200c    . ..    ADD      r2,r13,#0xc
        0x31000d88:    e8820003    ....    STMIA    r2,{r0,r1}
        0x31000d8c:    eb0005cb    ....    BL       _dfixu  ; 0x310024c0
        0x31000d90:    e20060ff    .`..    AND      r6,r0,#0xff
        0x31000d94:    e1a00004    ....    MOV      r0,r4
        0x31000d98:    eb0005f4    ....    BL       _dflt  ; 0x31002570
        0x31000d9c:    e98d0003    ....    STMIB    r13,{r0,r1}
        0x31000da0:    e28f0f83    ....    ADD      r0,pc,#0x20c ; #0x31000fb4
        0x31000da4:    e890000c    ....    LDMIA    r0,{r2,r3}
        0x31000da8:    e59d0004    ....    LDR      r0,[r13,#4]
        0x31000dac:    eb000625    %...    BL       _dmul  ; 0x31002648
        0x31000db0:    e28d200c    . ..    ADD      r2,r13,#0xc
        0x31000db4:    e8820003    ....    STMIA    r2,{r0,r1}
        0x31000db8:    eb0005c0    ....    BL       _dfixu  ; 0x310024c0
        0x31000dbc:    e20040ff    .@..    AND      r4,r0,#0xff
        0x31000dc0:    ea000069    i...    B        0x31000f6c
        0x31000dc4:    e1a00005    ....    MOV      r0,r5
        0x31000dc8:    eb0005e8    ....    BL       _dflt  ; 0x31002570
        0x31000dcc:    e98d0003    ....    STMIB    r13,{r0,r1}
        0x31000dd0:    e28f0f79    y...    ADD      r0,pc,#0x1e4 ; #0x31000fbc
        0x31000dd4:    e890000c    ....    LDMIA    r0,{r2,r3}
        0x31000dd8:    e59d0004    ....    LDR      r0,[r13,#4]
        0x31000ddc:    eb000619    ....    BL       _dmul  ; 0x31002648
        0x31000de0:    e28d200c    . ..    ADD      r2,r13,#0xc
        0x31000de4:    e8820003    ....    STMIA    r2,{r0,r1}
        0x31000de8:    eb0005b4    ....    BL       _dfixu  ; 0x310024c0
        0x31000dec:    e20050ff    .P..    AND      r5,r0,#0xff
        0x31000df0:    e1a00006    ....    MOV      r0,r6
        0x31000df4:    eb0005dd    ....    BL       _dflt  ; 0x31002570
        0x31000df8:    e98d0003    ....    STMIB    r13,{r0,r1}
        0x31000dfc:    e28f0f6e    n...    ADD      r0,pc,#0x1b8 ; #0x31000fbc
        0x31000e00:    e890000c    ....    LDMIA    r0,{r2,r3}
        0x31000e04:    e59d0004    ....    LDR      r0,[r13,#4]
        0x31000e08:    eb00060e    ....    BL       _dmul  ; 0x31002648
        0x31000e0c:    e28d200c    . ..    ADD      r2,r13,#0xc
        0x31000e10:    e8820003    ....    STMIA    r2,{r0,r1}
        0x31000e14:    eb0005a9    ....    BL       _dfixu  ; 0x310024c0
        0x31000e18:    e20060ff    .`..    AND      r6,r0,#0xff
        0x31000e1c:    e1a00004    ....    MOV      r0,r4
        0x31000e20:    eb0005d2    ....    BL       _dflt  ; 0x31002570
        0x31000e24:    e98d0003    ....    STMIB    r13,{r0,r1}
        0x31000e28:    e28f0f63    c...    ADD      r0,pc,#0x18c ; #0x31000fbc
        0x31000e2c:    e890000c    ....    LDMIA    r0,{r2,r3}
        0x31000e30:    e59d0004    ....    LDR      r0,[r13,#4]
        0x31000e34:    eb000603    ....    BL       _dmul  ; 0x31002648
        0x31000e38:    e28d200c    . ..    ADD      r2,r13,#0xc
        0x31000e3c:    e8820003    ....    STMIA    r2,{r0,r1}
        0x31000e40:    eb00059e    ....    BL       _dfixu  ; 0x310024c0
        0x31000e44:    e20040ff    .@..    AND      r4,r0,#0xff
        0x31000e48:    ea000047    G...    B        0x31000f6c
        0x31000e4c:    e1a00005    ....    MOV      r0,r5
        0x31000e50:    eb0005c6    ....    BL       _dflt  ; 0x31002570
        0x31000e54:    e98d0003    ....    STMIB    r13,{r0,r1}
        0x31000e58:    e28f0f59    Y...    ADD      r0,pc,#0x164 ; #0x31000fc4
        0x31000e5c:    e890000c    ....    LDMIA    r0,{r2,r3}
        0x31000e60:    e59d0004    ....    LDR      r0,[r13,#4]
        0x31000e64:    eb0005f7    ....    BL       _dmul  ; 0x31002648
        0x31000e68:    e28d200c    . ..    ADD      r2,r13,#0xc
        0x31000e6c:    e8820003    ....    STMIA    r2,{r0,r1}
        0x31000e70:    eb000592    ....    BL       _dfixu  ; 0x310024c0
        0x31000e74:    e20050ff    .P..    AND      r5,r0,#0xff
        0x31000e78:    e1a00006    ....    MOV      r0,r6
        0x31000e7c:    eb0005bb    ....    BL       _dflt  ; 0x31002570
        0x31000e80:    e98d0003    ....    STMIB    r13,{r0,r1}
        0x31000e84:    e28f0f4e    N...    ADD      r0,pc,#0x138 ; #0x31000fc4
        0x31000e88:    e890000c    ....    LDMIA    r0,{r2,r3}
        0x31000e8c:    e59d0004    ....    LDR      r0,[r13,#4]
        0x31000e90:    eb0005ec    ....    BL       _dmul  ; 0x31002648
        0x31000e94:    e28d200c    . ..    ADD      r2,r13,#0xc
        0x31000e98:    e8820003    ....    STMIA    r2,{r0,r1}
        0x31000e9c:    eb000587    ....    BL       _dfixu  ; 0x310024c0
        0x31000ea0:    e20060ff    .`..    AND      r6,r0,#0xff
        0x31000ea4:    e1a00004    ....    MOV      r0,r4
        0x31000ea8:    eb0005b0    ....    BL       _dflt  ; 0x31002570
        0x31000eac:    e98d0003    ....    STMIB    r13,{r0,r1}
        0x31000eb0:    e28f0f43    C...    ADD      r0,pc,#0x10c ; #0x31000fc4
        0x31000eb4:    e890000c    ....    LDMIA    r0,{r2,r3}
        0x31000eb8:    e59d0004    ....    LDR      r0,[r13,#4]
        0x31000ebc:    eb0005e1    ....    BL       _dmul  ; 0x31002648
        0x31000ec0:    e28d200c    . ..    ADD      r2,r13,#0xc
        0x31000ec4:    e8820003    ....    STMIA    r2,{r0,r1}
        0x31000ec8:    eb00057c    |...    BL       _dfixu  ; 0x310024c0
        0x31000ecc:    e20040ff    .@..    AND      r4,r0,#0xff
        0x31000ed0:    ea000025    %...    B        0x31000f6c
        0x31000ed4:    e1a00005    ....    MOV      r0,r5
        0x31000ed8:    eb0005a4    ....    BL       _dflt  ; 0x31002570
        0x31000edc:    e98d0003    ....    STMIB    r13,{r0,r1}
        0x31000ee0:    e28f00e4    ....    ADD      r0,pc,#0xe4 ; #0x31000fcc
        0x31000ee4:    e890000c    ....    LDMIA    r0,{r2,r3}
        0x31000ee8:    e59d0004    ....    LDR      r0,[r13,#4]
        0x31000eec:    eb0005d5    ....    BL       _dmul  ; 0x31002648
        0x31000ef0:    e28d200c    . ..    ADD      r2,r13,#0xc
        0x31000ef4:    e8820003    ....    STMIA    r2,{r0,r1}
        0x31000ef8:    eb000570    p...    BL       _dfixu  ; 0x310024c0
        0x31000efc:    e20050ff    .P..    AND      r5,r0,#0xff
        0x31000f00:    e1a00006    ....    MOV      r0,r6
        0x31000f04:    eb000599    ....    BL       _dflt  ; 0x31002570
        0x31000f08:    e98d0003    ....    STMIB    r13,{r0,r1}
        0x31000f0c:    e28f00b8    ....    ADD      r0,pc,#0xb8 ; #0x31000fcc
        0x31000f10:    e890000c    ....    LDMIA    r0,{r2,r3}
        0x31000f14:    e59d0004    ....    LDR      r0,[r13,#4]
        0x31000f18:    eb0005ca    ....    BL       _dmul  ; 0x31002648
        0x31000f1c:    e28d200c    . ..    ADD      r2,r13,#0xc
        0x31000f20:    e8820003    ....    STMIA    r2,{r0,r1}
        0x31000f24:    eb000565    e...    BL       _dfixu  ; 0x310024c0
        0x31000f28:    e20060ff    .`..    AND      r6,r0,#0xff
        0x31000f2c:    e1a00004    ....    MOV      r0,r4
        0x31000f30:    eb00058e    ....    BL       _dflt  ; 0x31002570
        0x31000f34:    e98d0003    ....    STMIB    r13,{r0,r1}
        0x31000f38:    e28f008c    ....    ADD      r0,pc,#0x8c ; #0x31000fcc
        0x31000f3c:    e890000c    ....    LDMIA    r0,{r2,r3}
        0x31000f40:    e59d0004    ....    LDR      r0,[r13,#4]
        0x31000f44:    eb0005bf    ....    BL       _dmul  ; 0x31002648
        0x31000f48:    e28d200c    . ..    ADD      r2,r13,#0xc
        0x31000f4c:    e8820003    ....    STMIA    r2,{r0,r1}
        0x31000f50:    eb00055a    Z...    BL       _dfixu  ; 0x310024c0
        0x31000f54:    e20040ff    .@..    AND      r4,r0,#0xff
        0x31000f58:    ea000003    ....    B        0x31000f6c
        0x31000f5c:    e1a00000    ....    NOP      
        0x31000f60:    e1a00000    ....    NOP      
        0x31000f64:    e1a00000    ....    NOP      
        0x31000f68:    e1a00000    ....    NOP      
        0x31000f6c:    e1a001a4    ....    MOV      r0,r4,LSR #3
        0x31000f70:    e1a00580    ....    MOV      r0,r0,LSL #11
        0x31000f74:    e1a01126    &...    MOV      r1,r6,LSR #2
        0x31000f78:    e1800281    ....    ORR      r0,r0,r1,LSL #5
        0x31000f7c:    e18001a5    ....    ORR      r0,r0,r5,LSR #3
        0x31000f80:    e1a0b800    ....    MOV      r11,r0,LSL #16
        0x31000f84:    e1a0b84b    K...    MOV      r11,r11,ASR #16
        0x31000f88:    e2670f78    x.g.    RSB      r0,r7,#0x1e0
        0x31000f8c:    e0800100    ....    ADD      r0,r0,r0,LSL #2
        0x31000f90:    e0880380    ....    ADD      r0,r8,r0,LSL #7
        0x31000f94:    e59d1014    ....    LDR      r1,[r13,#0x14]
        0x31000f98:    e0810080    ....    ADD      r0,r1,r0,LSL #1
        0x31000f9c:    e1c0b0b0    ....    STRH     r11,[r0,#0]
        0x31000fa0:    eaffff43    C...    B        0x31000cb4
        0x31000fa4:    eaffff3c    <...    B        0x31000c9c
        0x31000fa8:    eaffff35    5...    B        0x31000c84
        0x31000fac:    e28dd01c    ....    ADD      r13,r13,#0x1c
        0x31000fb0:    e8bd8ff0    ....    LDMFD    r13!,{r4-r11,pc}
    $d
        0x31000fb4:    9999999a    ....    DCD    2576980378
        0x31000fb8:    3fc99999    ...?    DCD    1070176665
        0x31000fbc:    9999999a    ....    DCD    2576980378
        0x31000fc0:    3fd99999    ...?    DCD    1071225241
        0x31000fc4:    33333333    3333    DCD    858993459
        0x31000fc8:    3fe33333    33.?    DCD    1071854387
        0x31000fcc:    9999999a    ....    DCD    2576980378
        0x31000fd0:    3fe99999    ...?    DCD    1072273817
    lcd_draw_bmp
    $a
        0x31000fd4:    e92d4010    .@-.    STMFD    r13!,{r4,r14}
        0x31000fd8:    e1a04000    .@..    MOV      r4,r0
        0x31000fdc:    e59f0144    D...    LDR      r0,0x31001128
        0x31000fe0:    e5901000    ....    LDR      r1,[r0,#0]
        0x31000fe4:    e3a00003    ....    MOV      r0,#3
        0x31000fe8:    eb0002d9    ....    BL       __rt_sdiv  ; 0x31001b54
        0x31000fec:    e3510001    ..Q.    CMP      r1,#1
        0x31000ff0:    1a000002    ....    BNE      0x31001000
        0x31000ff4:    e1a00004    ....    MOV      r0,r4
        0x31000ff8:    ebfffe3d    =...    BL       lcd_draw_bmp_eff1  ; 0x310008f4
        0x31000ffc:    ea00001c    ....    B        0x31001074
        0x31001000:    e59f0120     ...    LDR      r0,0x31001128
        0x31001004:    e5901000    ....    LDR      r1,[r0,#0]
        0x31001008:    e3a00003    ....    MOV      r0,#3
        0x3100100c:    eb0002d0    ....    BL       __rt_sdiv  ; 0x31001b54
        0x31001010:    e3510002    ..Q.    CMP      r1,#2
        0x31001014:    1a000002    ....    BNE      0x31001024
        0x31001018:    e1a00004    ....    MOV      r0,r4
        0x3100101c:    ebfffe59    Y...    BL       lcd_draw_bmp_eff2  ; 0x31000988
        0x31001020:    ea000013    ....    B        0x31001074
        0x31001024:    e59f00fc    ....    LDR      r0,0x31001128
        0x31001028:    e5901000    ....    LDR      r1,[r0,#0]
        0x3100102c:    e3a00003    ....    MOV      r0,#3
        0x31001030:    eb0002c7    ....    BL       __rt_sdiv  ; 0x31001b54
        0x31001034:    e3510003    ..Q.    CMP      r1,#3
        0x31001038:    1a000002    ....    BNE      0x31001048
        0x3100103c:    e1a00004    ....    MOV      r0,r4
        0x31001040:    ebfffe75    u...    BL       lcd_draw_bmp_eff3  ; 0x31000a1c
        0x31001044:    ea00000a    ....    B        0x31001074
        0x31001048:    e59f00d8    ....    LDR      r0,0x31001128
        0x3100104c:    e5901000    ....    LDR      r1,[r0,#0]
        0x31001050:    e3a00003    ....    MOV      r0,#3
        0x31001054:    eb0002be    ....    BL       __rt_sdiv  ; 0x31001b54
        0x31001058:    e3510004    ..Q.    CMP      r1,#4
        0x3100105c:    1a000002    ....    BNE      0x3100106c
        0x31001060:    e1a00004    ....    MOV      r0,r4
        0x31001064:    ebfffefb    ....    BL       lcd_draw_bmp_eff4  ; 0x31000c58
        0x31001068:    ea000001    ....    B        0x31001074
        0x3100106c:    e1a00004    ....    MOV      r0,r4
        0x31001070:    ebfffe1f    ....    BL       lcd_draw_bmp_eff1  ; 0x310008f4
        0x31001074:    e59f00ac    ....    LDR      r0,0x31001128
        0x31001078:    e5900000    ....    LDR      r0,[r0,#0]
        0x3100107c:    e2800001    ....    ADD      r0,r0,#1
        0x31001080:    e59f10a0    ....    LDR      r1,0x31001128
        0x31001084:    e5810000    ....    STR      r0,[r1,#0]
        0x31001088:    e8bd8010    ....    LDMFD    r13!,{r4,pc}
    lcd_draw_bmp_to_mem
        0x3100108c:    e92d47f0    .G-.    STMFD    r13!,{r4-r10,r14}
        0x31001090:    e1a02000    . ..    MOV      r2,r0
        0x31001094:    e1a00002    ....    MOV      r0,r2
        0x31001098:    e2822036    6 ..    ADD      r2,r2,#0x36
        0x3100109c:    e3a0c000    ....    MOV      r12,#0
        0x310010a0:    e35c0f78    x.\.    CMP      r12,#0x1e0
        0x310010a4:    aa00001e    ....    BGE      0x31001124
        0x310010a8:    ea000001    ....    B        0x310010b4
        0x310010ac:    e28cc001    ....    ADD      r12,r12,#1
        0x310010b0:    eafffffa    ....    B        0x310010a0
        0x310010b4:    e3a03000    .0..    MOV      r3,#0
        0x310010b8:    e3530fa0    ..S.    CMP      r3,#0x280
        0x310010bc:    aa000017    ....    BGE      0x31001120
        0x310010c0:    ea000001    ....    B        0x310010cc
        0x310010c4:    e2833001    .0..    ADD      r3,r3,#1
        0x310010c8:    eafffffa    ....    B        0x310010b8
        0x310010cc:    e4d24001    .@..    LDRB     r4,[r2],#1
        0x310010d0:    e4d25001    .P..    LDRB     r5,[r2],#1
        0x310010d4:    e4d2e001    ....    LDRB     r14,[r2],#1
        0x310010d8:    e1a0980e    ....    MOV      r9,r14,LSL #16
        0x310010dc:    e1899405    ....    ORR      r9,r9,r5,LSL #8
        0x310010e0:    e1898004    ....    ORR      r8,r9,r4
        0x310010e4:    e1a06001    .`..    MOV      r6,r1
        0x310010e8:    e1a091ae    ....    MOV      r9,r14,LSR #3
        0x310010ec:    e1a09589    ....    MOV      r9,r9,LSL #11
        0x310010f0:    e1a0a125    %...    MOV      r10,r5,LSR #2
        0x310010f4:    e189928a    ....    ORR      r9,r9,r10,LSL #5
        0x310010f8:    e18991a4    ....    ORR      r9,r9,r4,LSR #3
        0x310010fc:    e1a09809    ....    MOV      r9,r9,LSL #16
        0x31001100:    e1a07849    Ix..    MOV      r7,r9,ASR #16
        0x31001104:    e26c9f78    x.l.    RSB      r9,r12,#0x1e0
        0x31001108:    e0899109    ....    ADD      r9,r9,r9,LSL #2
        0x3100110c:    e0839389    ....    ADD      r9,r3,r9,LSL #7
        0x31001110:    e1a01006    ....    MOV      r1,r6
        0x31001114:    e0869089    ....    ADD      r9,r6,r9,LSL #1
        0x31001118:    e1c970b0    .p..    STRH     r7,[r9,#0]
        0x3100111c:    eaffffe8    ....    B        0x310010c4
        0x31001120:    eaffffe1    ....    B        0x310010ac
        0x31001124:    e8bd87f0    ....    LDMFD    r13!,{r4-r10,pc}
    $d
        0x31001128:    31002ef8    ...1    DCD    822095608
    nand_init
    $a
    .text
        0x3100112c:    e59f014c    L...    LDR      r0,0x31001280
        0x31001130:    e3a0144e    N...    MOV      r1,#0x4e000000
        0x31001134:    e5810000    ....    STR      r0,[r1,#0]
        0x31001138:    e3a00001    ....    MOV      r0,#1
        0x3100113c:    e3a0144e    N...    MOV      r1,#0x4e000000
        0x31001140:    e5810004    ....    STR      r0,[r1,#4]
        0x31001144:    e1a0f00e    ....    MOV      pc,r14
    nand_read_id
        0x31001148:    e3a00000    ....    MOV      r0,#0
        0x3100114c:    e3a01090    ....    MOV      r1,#0x90
        0x31001150:    e3a0244e    N$..    MOV      r2,#0x4e000000
        0x31001154:    e5c21008    ....    STRB     r1,[r2,#8]
        0x31001158:    e3a01000    ....    MOV      r1,#0
        0x3100115c:    e3a0244e    N$..    MOV      r2,#0x4e000000
        0x31001160:    e5c2100c    ....    STRB     r1,[r2,#0xc]
        0x31001164:    e3a0144e    N...    MOV      r1,#0x4e000000
        0x31001168:    e5d11010    ....    LDRB     r1,[r1,#0x10]
        0x3100116c:    e1a01c01    ....    MOV      r1,r1,LSL #24
        0x31001170:    e3a0244e    N$..    MOV      r2,#0x4e000000
        0x31001174:    e5d22010    . ..    LDRB     r2,[r2,#0x10]
        0x31001178:    e1811802    ....    ORR      r1,r1,r2,LSL #16
        0x3100117c:    e3a0244e    N$..    MOV      r2,#0x4e000000
        0x31001180:    e5d22010    . ..    LDRB     r2,[r2,#0x10]
        0x31001184:    e1811402    ....    ORR      r1,r1,r2,LSL #8
        0x31001188:    e3a0244e    N$..    MOV      r2,#0x4e000000
        0x3100118c:    e5d22010    . ..    LDRB     r2,[r2,#0x10]
        0x31001190:    e1810002    ....    ORR      r0,r1,r2
        0x31001194:    e1a0f00e    ....    MOV      pc,r14
    nand_read_page
        0x31001198:    e3a02000    . ..    MOV      r2,#0
        0x3100119c:    e3a03000    .0..    MOV      r3,#0
        0x310011a0:    e3a0c44e    N...    MOV      r12,#0x4e000000
        0x310011a4:    e5cc3008    .0..    STRB     r3,[r12,#8]
        0x310011a8:    e3a0344e    N4..    MOV      r3,#0x4e000000
        0x310011ac:    e5c3000c    ....    STRB     r0,[r3,#0xc]
        0x310011b0:    e1a03780    .7..    MOV      r3,r0,LSL #15
        0x310011b4:    e1a03c23    #<..    MOV      r3,r3,LSR #24
        0x310011b8:    e3a0c44e    N...    MOV      r12,#0x4e000000
        0x310011bc:    e5cc300c    .0..    STRB     r3,[r12,#0xc]
        0x310011c0:    e1a03380    .3..    MOV      r3,r0,LSL #7
        0x310011c4:    e1a03c23    #<..    MOV      r3,r3,LSR #24
        0x310011c8:    e3a0c44e    N...    MOV      r12,#0x4e000000
        0x310011cc:    e5cc300c    .0..    STRB     r3,[r12,#0xc]
        0x310011d0:    e1a03300    .3..    MOV      r3,r0,LSL #6
        0x310011d4:    e1a03fa3    .?..    MOV      r3,r3,LSR #31
        0x310011d8:    e3a0c44e    N...    MOV      r12,#0x4e000000
        0x310011dc:    e5cc300c    .0..    STRB     r3,[r12,#0xc]
        0x310011e0:    e1a00000    ....    NOP      
        0x310011e4:    e3a0344e    N4..    MOV      r3,#0x4e000000
        0x310011e8:    e5d33020     0..    LDRB     r3,[r3,#0x20]
        0x310011ec:    e3130001    ....    TST      r3,#1
        0x310011f0:    0afffffb    ....    BEQ      0x310011e4
        0x310011f4:    e3a02000    . ..    MOV      r2,#0
        0x310011f8:    e3520f80    ..R.    CMP      r2,#0x200
        0x310011fc:    aa000006    ....    BGE      0x3100121c
        0x31001200:    ea000001    ....    B        0x3100120c
        0x31001204:    e2822001    . ..    ADD      r2,r2,#1
        0x31001208:    eafffffa    ....    B        0x310011f8
        0x3100120c:    e3a0344e    N4..    MOV      r3,#0x4e000000
        0x31001210:    e5d33010    .0..    LDRB     r3,[r3,#0x10]
        0x31001214:    e4c13001    .0..    STRB     r3,[r1],#1
        0x31001218:    eafffff9    ....    B        0x31001204
        0x3100121c:    e1a0f00e    ....    MOV      pc,r14
    nand_read
        0x31001220:    e92d43f0    .C-.    STMFD    r13!,{r4-r9,r14}
        0x31001224:    e1a06000    .`..    MOV      r6,r0
        0x31001228:    e1a07001    .p..    MOV      r7,r1
        0x3100122c:    e1a05002    .P..    MOV      r5,r2
        0x31001230:    e1a09007    ....    MOV      r9,r7
        0x31001234:    e3550000    ..U.    CMP      r5,#0
        0x31001238:    ca000000    ....    BGT      0x31001240
        0x3100123c:    e8bd83f0    ....    LDMFD    r13!,{r4-r9,pc}
        0x31001240:    e2450001    ..E.    SUB      r0,r5,#1
        0x31001244:    e1a01fc0    ....    MOV      r1,r0,ASR #31
        0x31001248:    e0801ba1    ....    ADD      r1,r0,r1,LSR #23
        0x3100124c:    e1a014c1    ....    MOV      r1,r1,ASR #9
        0x31001250:    e2818001    ....    ADD      r8,r1,#1
        0x31001254:    e3a04000    .@..    MOV      r4,#0
        0x31001258:    e1540008    ..T.    CMP      r4,r8
        0x3100125c:    aa000006    ....    BGE      0x3100127c
        0x31001260:    ea000001    ....    B        0x3100126c
        0x31001264:    e2844001    .@..    ADD      r4,r4,#1
        0x31001268:    eafffffa    ....    B        0x31001258
        0x3100126c:    e0891484    ....    ADD      r1,r9,r4,LSL #9
        0x31001270:    e0860484    ....    ADD      r0,r6,r4,LSL #9
        0x31001274:    ebffffc7    ....    BL       nand_read_page  ; 0x31001198
        0x31001278:    eafffff9    ....    B        0x31001264
        0x3100127c:    eaffffee    ....    B        0x3100123c
    $d
        0x31001280:    00003770    p7..    DCD    14192
    delay_ns
    $a
    .text
        0x31001284:    e3a01000    ....    MOV      r1,#0
        0x31001288:    e1510000    ..Q.    CMP      r1,r0
        0x3100128c:    aa000001    ....    BGE      0x31001298
        0x31001290:    e2811001    ....    ADD      r1,r1,#1
        0x31001294:    eafffffb    ....    B        0x31001288
        0x31001298:    e1a0f00e    ....    MOV      pc,r14
    L3_init
        0x3100129c:    e3a00456    V...    MOV      r0,#0x56000000
        0x310012a0:    e5900010    ....    LDR      r0,[r0,#0x10]
        0x310012a4:    e3800f54    T...    ORR      r0,r0,#0x150
        0x310012a8:    e3a01456    V...    MOV      r1,#0x56000000
        0x310012ac:    e5810010    ....    STR      r0,[r1,#0x10]
        0x310012b0:    e3a00456    V...    MOV      r0,#0x56000000
        0x310012b4:    e5900010    ....    LDR      r0,[r0,#0x10]
        0x310012b8:    e3c00fa8    ....    BIC      r0,r0,#0x2a0
        0x310012bc:    e3a01456    V...    MOV      r1,#0x56000000
        0x310012c0:    e5810010    ....    STR      r0,[r1,#0x10]
        0x310012c4:    e1a0f00e    ....    MOV      pc,r14
    L3_data
        0x310012c8:    e92d4030    0@-.    STMFD    r13!,{r4,r5,r14}
        0x310012cc:    e1a04000    .@..    MOV      r4,r0
        0x310012d0:    e3a00456    V...    MOV      r0,#0x56000000
        0x310012d4:    e5900014    ....    LDR      r0,[r0,#0x14]
        0x310012d8:    e3800010    ....    ORR      r0,r0,#0x10
        0x310012dc:    e3a01456    V...    MOV      r1,#0x56000000
        0x310012e0:    e5810014    ....    STR      r0,[r1,#0x14]
        0x310012e4:    e3a00456    V...    MOV      r0,#0x56000000
        0x310012e8:    e5900014    ....    LDR      r0,[r0,#0x14]
        0x310012ec:    e3c00004    ....    BIC      r0,r0,#4
        0x310012f0:    e3a01456    V...    MOV      r1,#0x56000000
        0x310012f4:    e5810014    ....    STR      r0,[r1,#0x14]
        0x310012f8:    e3a000be    ....    MOV      r0,#0xbe
        0x310012fc:    ebffffe0    ....    BL       delay_ns  ; 0x31001284
        0x31001300:    e3a00456    V...    MOV      r0,#0x56000000
        0x31001304:    e5900014    ....    LDR      r0,[r0,#0x14]
        0x31001308:    e3800004    ....    ORR      r0,r0,#4
        0x3100130c:    e3a01456    V...    MOV      r1,#0x56000000
        0x31001310:    e5810014    ....    STR      r0,[r1,#0x14]
        0x31001314:    e3a000be    ....    MOV      r0,#0xbe
        0x31001318:    ebffffd9    ....    BL       delay_ns  ; 0x31001284
        0x3100131c:    e3a03000    .0..    MOV      r3,#0
        0x31001320:    e3530008    ..S.    CMP      r3,#8
        0x31001324:    aa000020     ...    BGE      0x310013ac
        0x31001328:    ea000001    ....    B        0x31001334
        0x3100132c:    e2833001    .0..    ADD      r3,r3,#1
        0x31001330:    eafffffa    ....    B        0x31001320
        0x31001334:    e1a00334    4...    MOV      r0,r4,LSR r3
        0x31001338:    e2005001    .P..    AND      r5,r0,#1
        0x3100133c:    e3a00456    V...    MOV      r0,#0x56000000
        0x31001340:    e5900014    ....    LDR      r0,[r0,#0x14]
        0x31001344:    e3c00010    ....    BIC      r0,r0,#0x10
        0x31001348:    e3a01456    V...    MOV      r1,#0x56000000
        0x3100134c:    e5810014    ....    STR      r0,[r1,#0x14]
        0x31001350:    e3550000    ..U.    CMP      r5,#0
        0x31001354:    0a000005    ....    BEQ      0x31001370
        0x31001358:    e3a00456    V...    MOV      r0,#0x56000000
        0x3100135c:    e5900014    ....    LDR      r0,[r0,#0x14]
        0x31001360:    e3800008    ....    ORR      r0,r0,#8
        0x31001364:    e3a01456    V...    MOV      r1,#0x56000000
        0x31001368:    e5810014    ....    STR      r0,[r1,#0x14]
        0x3100136c:    ea000004    ....    B        0x31001384
        0x31001370:    e3a00456    V...    MOV      r0,#0x56000000
        0x31001374:    e5900014    ....    LDR      r0,[r0,#0x14]
        0x31001378:    e3c00008    ....    BIC      r0,r0,#8
        0x3100137c:    e3a01456    V...    MOV      r1,#0x56000000
        0x31001380:    e5810014    ....    STR      r0,[r1,#0x14]
        0x31001384:    e3a000fa    ....    MOV      r0,#0xfa
        0x31001388:    ebffffbd    ....    BL       delay_ns  ; 0x31001284
        0x3100138c:    e3a00456    V...    MOV      r0,#0x56000000
        0x31001390:    e5900014    ....    LDR      r0,[r0,#0x14]
        0x31001394:    e3800010    ....    ORR      r0,r0,#0x10
        0x31001398:    e3a01456    V...    MOV      r1,#0x56000000
        0x3100139c:    e5810014    ....    STR      r0,[r1,#0x14]
        0x310013a0:    e3a000fa    ....    MOV      r0,#0xfa
        0x310013a4:    ebffffb6    ....    BL       delay_ns  ; 0x31001284
        0x310013a8:    eaffffdf    ....    B        0x3100132c
        0x310013ac:    e3a00456    V...    MOV      r0,#0x56000000
        0x310013b0:    e5900014    ....    LDR      r0,[r0,#0x14]
        0x310013b4:    e3c00004    ....    BIC      r0,r0,#4
        0x310013b8:    e3a01456    V...    MOV      r1,#0x56000000
        0x310013bc:    e5810014    ....    STR      r0,[r1,#0x14]
        0x310013c0:    e8bd8030    0...    LDMFD    r13!,{r4,r5,pc}
    L3_address
        0x310013c4:    e92d4030    0@-.    STMFD    r13!,{r4,r5,r14}
        0x310013c8:    e1a04000    .@..    MOV      r4,r0
        0x310013cc:    e3a00456    V...    MOV      r0,#0x56000000
        0x310013d0:    e5900014    ....    LDR      r0,[r0,#0x14]
        0x310013d4:    e3800010    ....    ORR      r0,r0,#0x10
        0x310013d8:    e3a01456    V...    MOV      r1,#0x56000000
        0x310013dc:    e5810014    ....    STR      r0,[r1,#0x14]
        0x310013e0:    e3a00456    V...    MOV      r0,#0x56000000
        0x310013e4:    e5900014    ....    LDR      r0,[r0,#0x14]
        0x310013e8:    e3800004    ....    ORR      r0,r0,#4
        0x310013ec:    e3a01456    V...    MOV      r1,#0x56000000
        0x310013f0:    e5810014    ....    STR      r0,[r1,#0x14]
        0x310013f4:    e3a000be    ....    MOV      r0,#0xbe
        0x310013f8:    ebffffa1    ....    BL       delay_ns  ; 0x31001284
        0x310013fc:    e3a00456    V...    MOV      r0,#0x56000000
        0x31001400:    e5900014    ....    LDR      r0,[r0,#0x14]
        0x31001404:    e3c00004    ....    BIC      r0,r0,#4
        0x31001408:    e3a01456    V...    MOV      r1,#0x56000000
        0x3100140c:    e5810014    ....    STR      r0,[r1,#0x14]
        0x31001410:    e3a000be    ....    MOV      r0,#0xbe
        0x31001414:    ebffff9a    ....    BL       delay_ns  ; 0x31001284
        0x31001418:    e3a03000    .0..    MOV      r3,#0
        0x3100141c:    e3530008    ..S.    CMP      r3,#8
        0x31001420:    aa000020     ...    BGE      0x310014a8
        0x31001424:    ea000001    ....    B        0x31001430
        0x31001428:    e2833001    .0..    ADD      r3,r3,#1
        0x3100142c:    eafffffa    ....    B        0x3100141c
        0x31001430:    e1a00334    4...    MOV      r0,r4,LSR r3
        0x31001434:    e2005001    .P..    AND      r5,r0,#1
        0x31001438:    e3a00456    V...    MOV      r0,#0x56000000
        0x3100143c:    e5900014    ....    LDR      r0,[r0,#0x14]
        0x31001440:    e3c00010    ....    BIC      r0,r0,#0x10
        0x31001444:    e3a01456    V...    MOV      r1,#0x56000000
        0x31001448:    e5810014    ....    STR      r0,[r1,#0x14]
        0x3100144c:    e3550000    ..U.    CMP      r5,#0
        0x31001450:    0a000005    ....    BEQ      0x3100146c
        0x31001454:    e3a00456    V...    MOV      r0,#0x56000000
        0x31001458:    e5900014    ....    LDR      r0,[r0,#0x14]
        0x3100145c:    e3800008    ....    ORR      r0,r0,#8
        0x31001460:    e3a01456    V...    MOV      r1,#0x56000000
        0x31001464:    e5810014    ....    STR      r0,[r1,#0x14]
        0x31001468:    ea000004    ....    B        0x31001480
        0x3100146c:    e3a00456    V...    MOV      r0,#0x56000000
        0x31001470:    e5900014    ....    LDR      r0,[r0,#0x14]
        0x31001474:    e3c00008    ....    BIC      r0,r0,#8
        0x31001478:    e3a01456    V...    MOV      r1,#0x56000000
        0x3100147c:    e5810014    ....    STR      r0,[r1,#0x14]
        0x31001480:    e3a000fa    ....    MOV      r0,#0xfa
        0x31001484:    ebffff7e    ~...    BL       delay_ns  ; 0x31001284
        0x31001488:    e3a00456    V...    MOV      r0,#0x56000000
        0x3100148c:    e5900014    ....    LDR      r0,[r0,#0x14]
        0x31001490:    e3800010    ....    ORR      r0,r0,#0x10
        0x31001494:    e3a01456    V...    MOV      r1,#0x56000000
        0x31001498:    e5810014    ....    STR      r0,[r1,#0x14]
        0x3100149c:    e3a000fa    ....    MOV      r0,#0xfa
        0x310014a0:    ebffff77    w...    BL       delay_ns  ; 0x31001284
        0x310014a4:    eaffffdf    ....    B        0x31001428
        0x310014a8:    e3a00456    V...    MOV      r0,#0x56000000
        0x310014ac:    e5900014    ....    LDR      r0,[r0,#0x14]
        0x310014b0:    e3800004    ....    ORR      r0,r0,#4
        0x310014b4:    e3a01456    V...    MOV      r1,#0x56000000
        0x310014b8:    e5810014    ....    STR      r0,[r1,#0x14]
        0x310014bc:    e8bd8030    0...    LDMFD    r13!,{r4,r5,pc}
    L3_write
        0x310014c0:    e92d4030    0@-.    STMFD    r13!,{r4,r5,r14}
        0x310014c4:    e1a04000    .@..    MOV      r4,r0
        0x310014c8:    e1a05001    .P..    MOV      r5,r1
        0x310014cc:    e20400ff    ....    AND      r0,r4,#0xff
        0x310014d0:    ebffffbb    ....    BL       L3_address  ; 0x310013c4
        0x310014d4:    e20500ff    ....    AND      r0,r5,#0xff
        0x310014d8:    ebffff7a    z...    BL       L3_data  ; 0x310012c8
        0x310014dc:    e8bd8030    0...    LDMFD    r13!,{r4,r5,pc}
    key_init
        0x310014e0:    e3a00456    V...    MOV      r0,#0x56000000
        0x310014e4:    e5900010    ....    LDR      r0,[r0,#0x10]
        0x310014e8:    e3800b40    @...    ORR      r0,r0,#0x10000
        0x310014ec:    e3a01456    V...    MOV      r1,#0x56000000
        0x310014f0:    e5810010    ....    STR      r0,[r1,#0x10]
        0x310014f4:    e3a00456    V...    MOV      r0,#0x56000000
        0x310014f8:    e5900010    ....    LDR      r0,[r0,#0x10]
        0x310014fc:    e3c00b80    ....    BIC      r0,r0,#0x20000
        0x31001500:    e3a01456    V...    MOV      r1,#0x56000000
        0x31001504:    e5810010    ....    STR      r0,[r1,#0x10]
        0x31001508:    e3a00456    V...    MOV      r0,#0x56000000
        0x3100150c:    e5900010    ....    LDR      r0,[r0,#0x10]
        0x31001510:    e3800a40    @...    ORR      r0,r0,#0x40000
        0x31001514:    e3a01456    V...    MOV      r1,#0x56000000
        0x31001518:    e5810010    ....    STR      r0,[r1,#0x10]
        0x3100151c:    e3a00456    V...    MOV      r0,#0x56000000
        0x31001520:    e5900010    ....    LDR      r0,[r0,#0x10]
        0x31001524:    e3c00a80    ....    BIC      r0,r0,#0x80000
        0x31001528:    e3a01456    V...    MOV      r1,#0x56000000
        0x3100152c:    e5810010    ....    STR      r0,[r1,#0x10]
        0x31001530:    e1a0f00e    ....    MOV      pc,r14
    keyscan
        0x31001534:    e3a00456    V...    MOV      r0,#0x56000000
        0x31001538:    e5900014    ....    LDR      r0,[r0,#0x14]
        0x3100153c:    e3c00f40    @...    BIC      r0,r0,#0x100
        0x31001540:    e3a01456    V...    MOV      r1,#0x56000000
        0x31001544:    e5810014    ....    STR      r0,[r1,#0x14]
        0x31001548:    e3a00456    V...    MOV      r0,#0x56000000
        0x3100154c:    e5900014    ....    LDR      r0,[r0,#0x14]
        0x31001550:    e3800f80    ....    ORR      r0,r0,#0x200
        0x31001554:    e3a01456    V...    MOV      r1,#0x56000000
        0x31001558:    e5810014    ....    STR      r0,[r1,#0x14]
        0x3100155c:    e3a00456    V...    MOV      r0,#0x56000000
        0x31001560:    e5900054    T...    LDR      r0,[r0,#0x54]
        0x31001564:    e3100001    ....    TST      r0,#1
        0x31001568:    1a000001    ....    BNE      0x31001574
        0x3100156c:    e3a00001    ....    MOV      r0,#1
        0x31001570:    e1a0f00e    ....    MOV      pc,r14
        0x31001574:    e3a00456    V...    MOV      r0,#0x56000000
        0x31001578:    e5900054    T...    LDR      r0,[r0,#0x54]
        0x3100157c:    e3100004    ....    TST      r0,#4
        0x31001580:    1a000001    ....    BNE      0x3100158c
        0x31001584:    e3a00003    ....    MOV      r0,#3
        0x31001588:    eafffff8    ....    B        0x31001570
        0x3100158c:    e3a00456    V...    MOV      r0,#0x56000000
        0x31001590:    e5900014    ....    LDR      r0,[r0,#0x14]
        0x31001594:    e3c00f80    ....    BIC      r0,r0,#0x200
        0x31001598:    e3a01456    V...    MOV      r1,#0x56000000
        0x3100159c:    e5810014    ....    STR      r0,[r1,#0x14]
        0x310015a0:    e3a00456    V...    MOV      r0,#0x56000000
        0x310015a4:    e5900014    ....    LDR      r0,[r0,#0x14]
        0x310015a8:    e3800f40    @...    ORR      r0,r0,#0x100
        0x310015ac:    e3a01456    V...    MOV      r1,#0x56000000
        0x310015b0:    e5810014    ....    STR      r0,[r1,#0x14]
        0x310015b4:    e3a00456    V...    MOV      r0,#0x56000000
        0x310015b8:    e5900054    T...    LDR      r0,[r0,#0x54]
        0x310015bc:    e3100001    ....    TST      r0,#1
        0x310015c0:    1a000001    ....    BNE      0x310015cc
        0x310015c4:    e3a00002    ....    MOV      r0,#2
        0x310015c8:    eaffffe8    ....    B        0x31001570
        0x310015cc:    e3a00456    V...    MOV      r0,#0x56000000
        0x310015d0:    e5900054    T...    LDR      r0,[r0,#0x54]
        0x310015d4:    e3100004    ....    TST      r0,#4
        0x310015d8:    1a000001    ....    BNE      0x310015e4
        0x310015dc:    e3a00004    ....    MOV      r0,#4
        0x310015e0:    eaffffe2    ....    B        0x31001570
        0x310015e4:    e3a00000    ....    MOV      r0,#0
        0x310015e8:    eaffffe0    ....    B        0x31001570
    print_hex
        0x310015ec:    e92d4070    p@-.    STMFD    r13!,{r4-r6,r14}
        0x310015f0:    e1a06000    .`..    MOV      r6,r0
        0x310015f4:    e3a04000    .@..    MOV      r4,#0
        0x310015f8:    e3a05000    .P..    MOV      r5,#0
        0x310015fc:    e3a04007    .@..    MOV      r4,#7
        0x31001600:    e3540000    ..T.    CMP      r4,#0
        0x31001604:    ba00000f    ....    BLT      0x31001648
        0x31001608:    ea000001    ....    B        0x31001614
        0x3100160c:    e2444001    .@D.    SUB      r4,r4,#1
        0x31001610:    eafffffa    ....    B        0x31001600
        0x31001614:    e1a00104    ....    MOV      r0,r4,LSL #2
        0x31001618:    e1a00056    V...    MOV      r0,r6,ASR r0
        0x3100161c:    e200500f    .P..    AND      r5,r0,#0xf
        0x31001620:    e355000a    ..U.    CMP      r5,#0xa
        0x31001624:    aa000003    ....    BGE      0x31001638
        0x31001628:    e2850030    0...    ADD      r0,r5,#0x30
        0x3100162c:    e20000ff    ....    AND      r0,r0,#0xff
        0x31001630:    ebfffb85    ....    BL       uart_putchar  ; 0x3100044c
        0x31001634:    ea000002    ....    B        0x31001644
        0x31001638:    e2850037    7...    ADD      r0,r5,#0x37
        0x3100163c:    e20000ff    ....    AND      r0,r0,#0xff
        0x31001640:    ebfffb81    ....    BL       uart_putchar  ; 0x3100044c
        0x31001644:    eafffff0    ....    B        0x3100160c
        0x31001648:    e8bd8070    p...    LDMFD    r13!,{r4-r6,pc}
    parse_wav
        0x3100164c:    e92d40f0    .@-.    STMFD    r13!,{r4-r7,r14}
        0x31001650:    e24dd014    ..M.    SUB      r13,r13,#0x14
        0x31001654:    e1a06000    .`..    MOV      r6,r0
        0x31001658:    e1a04001    .@..    MOV      r4,r1
        0x3100165c:    e1d451f0    .Q..    LDRSH    r5,[r4,#0x10]
        0x31001660:    e3550010    ..U.    CMP      r5,#0x10
        0x31001664:    1a00000c    ....    BNE      0x3100169c
        0x31001668:    e5d40024    $...    LDRB     r0,[r4,#0x24]
        0x3100166c:    e3500064    d.P.    CMP      r0,#0x64
        0x31001670:    1a000004    ....    BNE      0x31001688
        0x31001674:    e284002c    ,...    ADD      r0,r4,#0x2c
        0x31001678:    e58d0010    ....    STR      r0,[r13,#0x10]
        0x3100167c:    e5940028    (...    LDR      r0,[r4,#0x28]
        0x31001680:    e58d000c    ....    STR      r0,[r13,#0xc]
        0x31001684:    ea00001e    ....    B        0x31001704
        0x31001688:    e2840038    8...    ADD      r0,r4,#0x38
        0x3100168c:    e58d0010    ....    STR      r0,[r13,#0x10]
        0x31001690:    e5940034    4...    LDR      r0,[r4,#0x34]
        0x31001694:    e58d000c    ....    STR      r0,[r13,#0xc]
        0x31001698:    ea000019    ....    B        0x31001704
        0x3100169c:    e3550012    ..U.    CMP      r5,#0x12
        0x310016a0:    1a000017    ....    BNE      0x31001704
        0x310016a4:    e5d40026    &...    LDRB     r0,[r4,#0x26]
        0x310016a8:    e3500064    d.P.    CMP      r0,#0x64
        0x310016ac:    1a00000a    ....    BNE      0x310016dc
        0x310016b0:    e284c02e    ....    ADD      r12,r4,#0x2e
        0x310016b4:    e58dc010    ....    STR      r12,[r13,#0x10]
        0x310016b8:    e5d4002a    *...    LDRB     r0,[r4,#0x2a]
        0x310016bc:    e5d4102b    +...    LDRB     r1,[r4,#0x2b]
        0x310016c0:    e5d4202c    , ..    LDRB     r2,[r4,#0x2c]
        0x310016c4:    e5d4302d    -0..    LDRB     r3,[r4,#0x2d]
        0x310016c8:    e180c401    ....    ORR      r12,r0,r1,LSL #8
        0x310016cc:    e18cc802    ....    ORR      r12,r12,r2,LSL #16
        0x310016d0:    e18ccc03    ....    ORR      r12,r12,r3,LSL #24
        0x310016d4:    e58dc00c    ....    STR      r12,[r13,#0xc]
        0x310016d8:    ea000009    ....    B        0x31001704
        0x310016dc:    e284c03a    :...    ADD      r12,r4,#0x3a
        0x310016e0:    e58dc010    ....    STR      r12,[r13,#0x10]
        0x310016e4:    e5d40036    6...    LDRB     r0,[r4,#0x36]
        0x310016e8:    e5d41037    7...    LDRB     r1,[r4,#0x37]
        0x310016ec:    e5d42038    8 ..    LDRB     r2,[r4,#0x38]
        0x310016f0:    e5d43039    90..    LDRB     r3,[r4,#0x39]
        0x310016f4:    e180c401    ....    ORR      r12,r0,r1,LSL #8
        0x310016f8:    e18cc802    ....    ORR      r12,r12,r2,LSL #16
        0x310016fc:    e18ccc03    ....    ORR      r12,r12,r3,LSL #24
        0x31001700:    e58dc00c    ....    STR      r12,[r13,#0xc]
        0x31001704:    e1a0700d    .p..    MOV      r7,r13
        0x31001708:    e3a02014    . ..    MOV      r2,#0x14
        0x3100170c:    e1a0100d    ....    MOV      r1,r13
        0x31001710:    e1a00006    ....    MOV      r0,r6
        0x31001714:    eb0000f3    ....    BL       __rt_memcpy_w  ; 0x31001ae8
        0x31001718:    e28dd014    ....    ADD      r13,r13,#0x14
        0x3100171c:    e8bd80f0    ....    LDMFD    r13!,{r4-r7,pc}
    dma_play_wavdata
        0x31001720:    e3a02455    U$..    MOV      r2,#0x55000000
        0x31001724:    e592200c    . ..    LDR      r2,[r2,#0xc]
        0x31001728:    e3822c80    .,..    ORR      r2,r2,#0x8000
        0x3100172c:    e3a03455    U4..    MOV      r3,#0x55000000
        0x31001730:    e583200c    . ..    STR      r2,[r3,#0xc]
        0x31001734:    e3a02455    U$..    MOV      r2,#0x55000000
        0x31001738:    e5922000    . ..    LDR      r2,[r2,#0]
        0x3100173c:    e3822020      ..    ORR      r2,r2,#0x20
        0x31001740:    e3a03455    U4..    MOV      r3,#0x55000000
        0x31001744:    e5832000    . ..    STR      r2,[r3,#0]
        0x31001748:    e3a0244b    K$..    MOV      r2,#0x4b000000
        0x3100174c:    e5820080    ....    STR      r0,[r2,#0x80]
        0x31001750:    e3a02000    . ..    MOV      r2,#0
        0x31001754:    e3a0344b    K4..    MOV      r3,#0x4b000000
        0x31001758:    e5832084    . ..    STR      r2,[r3,#0x84]
        0x3100175c:    e59f2370    p#..    LDR      r2,0x31001ad4
        0x31001760:    e3a0344b    K4..    MOV      r3,#0x4b000000
        0x31001764:    e5832088    . ..    STR      r2,[r3,#0x88]
        0x31001768:    e3a02003    . ..    MOV      r2,#3
        0x3100176c:    e3a0344b    K4..    MOV      r3,#0x4b000000
        0x31001770:    e583208c    . ..    STR      r2,[r3,#0x8c]
        0x31001774:    e0813fa1    .?..    ADD      r3,r1,r1,LSR #31
        0x31001778:    e1a030c3    .0..    MOV      r3,r3,ASR #1
        0x3100177c:    e2432001    . C.    SUB      r2,r3,#1
        0x31001780:    e3822890    .(..    ORR      r2,r2,#0x900000
        0x31001784:    e3a0344b    K4..    MOV      r3,#0x4b000000
        0x31001788:    e5832090    . ..    STR      r2,[r3,#0x90]
        0x3100178c:    e3a0244b    K$..    MOV      r2,#0x4b000000
        0x31001790:    e5922090    . ..    LDR      r2,[r2,#0x90]
        0x31001794:    e3822840    @(..    ORR      r2,r2,#0x400000
        0x31001798:    e3a0344b    K4..    MOV      r3,#0x4b000000
        0x3100179c:    e5832090    . ..    STR      r2,[r3,#0x90]
        0x310017a0:    e3a0244b    K$..    MOV      r2,#0x4b000000
        0x310017a4:    e5922090    . ..    LDR      r2,[r2,#0x90]
        0x310017a8:    e3822580    .%..    ORR      r2,r2,#0x20000000
        0x310017ac:    e3a0344b    K4..    MOV      r3,#0x4b000000
        0x310017b0:    e5832090    . ..    STR      r2,[r3,#0x90]
        0x310017b4:    e3a02002    . ..    MOV      r2,#2
        0x310017b8:    e3a0344b    K4..    MOV      r3,#0x4b000000
        0x310017bc:    e58320a0    . ..    STR      r2,[r3,#0xa0]
        0x310017c0:    e1a0f00e    ....    MOV      pc,r14
    dma_play_wav
        0x310017c4:    e92d4010    .@-.    STMFD    r13!,{r4,r14}
        0x310017c8:    e24dd018    ..M.    SUB      r13,r13,#0x18
        0x310017cc:    e1a04000    .@..    MOV      r4,r0
        0x310017d0:    e1a01004    ....    MOV      r1,r4
        0x310017d4:    e28d0004    ....    ADD      r0,r13,#4
        0x310017d8:    ebffff9b    ....    BL       parse_wav  ; 0x3100164c
        0x310017dc:    e3a00455    U...    MOV      r0,#0x55000000
        0x310017e0:    e590000c    ....    LDR      r0,[r0,#0xc]
        0x310017e4:    e3800c80    ....    ORR      r0,r0,#0x8000
        0x310017e8:    e3a01455    U...    MOV      r1,#0x55000000
        0x310017ec:    e581000c    ....    STR      r0,[r1,#0xc]
        0x310017f0:    e3a00455    U...    MOV      r0,#0x55000000
        0x310017f4:    e5900000    ....    LDR      r0,[r0,#0]
        0x310017f8:    e3800020     ...    ORR      r0,r0,#0x20
        0x310017fc:    e3a01455    U...    MOV      r1,#0x55000000
        0x31001800:    e5810000    ....    STR      r0,[r1,#0]
        0x31001804:    e59d0014    ....    LDR      r0,[r13,#0x14]
        0x31001808:    e3a0144b    K...    MOV      r1,#0x4b000000
        0x3100180c:    e5810080    ....    STR      r0,[r1,#0x80]
        0x31001810:    e3a00000    ....    MOV      r0,#0
        0x31001814:    e3a0144b    K...    MOV      r1,#0x4b000000
        0x31001818:    e5810084    ....    STR      r0,[r1,#0x84]
        0x3100181c:    e59f02b0    ....    LDR      r0,0x31001ad4
        0x31001820:    e3a0144b    K...    MOV      r1,#0x4b000000
        0x31001824:    e5810088    ....    STR      r0,[r1,#0x88]
        0x31001828:    e3a00003    ....    MOV      r0,#3
        0x3100182c:    e3a0144b    K...    MOV      r1,#0x4b000000
        0x31001830:    e581008c    ....    STR      r0,[r1,#0x8c]
        0x31001834:    e59d0010    ....    LDR      r0,[r13,#0x10]
        0x31001838:    e0801fa0    ....    ADD      r1,r0,r0,LSR #31
        0x3100183c:    e1a010c1    ....    MOV      r1,r1,ASR #1
        0x31001840:    e3810890    ....    ORR      r0,r1,#0x900000
        0x31001844:    e3a0144b    K...    MOV      r1,#0x4b000000
        0x31001848:    e5810090    ....    STR      r0,[r1,#0x90]
        0x3100184c:    e3a0044b    K...    MOV      r0,#0x4b000000
        0x31001850:    e5900090    ....    LDR      r0,[r0,#0x90]
        0x31001854:    e3800840    @...    ORR      r0,r0,#0x400000
        0x31001858:    e3a0144b    K...    MOV      r1,#0x4b000000
        0x3100185c:    e5810090    ....    STR      r0,[r1,#0x90]
        0x31001860:    e3a0044b    K...    MOV      r0,#0x4b000000
        0x31001864:    e5900090    ....    LDR      r0,[r0,#0x90]
        0x31001868:    e3800580    ....    ORR      r0,r0,#0x20000000
        0x3100186c:    e3a0144b    K...    MOV      r1,#0x4b000000
        0x31001870:    e5810090    ....    STR      r0,[r1,#0x90]
        0x31001874:    e3a00002    ....    MOV      r0,#2
        0x31001878:    e3a0144b    K...    MOV      r1,#0x4b000000
        0x3100187c:    e58100a0    ....    STR      r0,[r1,#0xa0]
        0x31001880:    e28dd018    ....    ADD      r13,r13,#0x18
        0x31001884:    e8bd8010    ....    LDMFD    r13!,{r4,pc}
    dma_play_wav_bigfile
        0x31001888:    e92d4010    .@-.    STMFD    r13!,{r4,r14}
        0x3100188c:    e24dd018    ..M.    SUB      r13,r13,#0x18
        0x31001890:    e1a04000    .@..    MOV      r4,r0
        0x31001894:    e1a01004    ....    MOV      r1,r4
        0x31001898:    e28d0004    ....    ADD      r0,r13,#4
        0x3100189c:    ebffff6a    j...    BL       parse_wav  ; 0x3100164c
        0x310018a0:    e59f1230    0...    LDR      r1,0x31001ad8
        0x310018a4:    e59d0010    ....    LDR      r0,[r13,#0x10]
        0x310018a8:    e5810000    ....    STR      r0,[r1,#0]
        0x310018ac:    e59f1228    (...    LDR      r1,0x31001adc
        0x310018b0:    e59d0014    ....    LDR      r0,[r13,#0x14]
        0x310018b4:    e5810000    ....    STR      r0,[r1,#0]
        0x310018b8:    e59f0218    ....    LDR      r0,0x31001ad8
        0x310018bc:    e5901000    ....    LDR      r1,[r0,#0]
        0x310018c0:    e59f0214    ....    LDR      r0,0x31001adc
        0x310018c4:    e5900000    ....    LDR      r0,[r0,#0]
        0x310018c8:    ebffff94    ....    BL       dma_play_wavdata  ; 0x31001720
        0x310018cc:    e28dd018    ....    ADD      r13,r13,#0x18
        0x310018d0:    e8bd8010    ....    LDMFD    r13!,{r4,pc}
    play_wav
        0x310018d4:    e92d40f8    .@-.    STMFD    r13!,{r3-r7,r14}
        0x310018d8:    e1a04000    .@..    MOV      r4,r0
        0x310018dc:    e1a06004    .`..    MOV      r6,r4
        0x310018e0:    e59f51f8    .Q..    LDR      r5,0x31001ae0
        0x310018e4:    e1d471f0    .q..    LDRSH    r7,[r4,#0x10]
        0x310018e8:    e3570010    ..W.    CMP      r7,#0x10
        0x310018ec:    1a000008    ....    BNE      0x31001914
        0x310018f0:    e5d40024    $...    LDRB     r0,[r4,#0x24]
        0x310018f4:    e3500064    d.P.    CMP      r0,#0x64
        0x310018f8:    1a000002    ....    BNE      0x31001908
        0x310018fc:    e284602c    ,`..    ADD      r6,r4,#0x2c
        0x31001900:    e5945028    (P..    LDR      r5,[r4,#0x28]
        0x31001904:    ea000018    ....    B        0x3100196c
        0x31001908:    e2846038    8`..    ADD      r6,r4,#0x38
        0x3100190c:    e5945034    4P..    LDR      r5,[r4,#0x34]
        0x31001910:    ea000015    ....    B        0x3100196c
        0x31001914:    e3570012    ..W.    CMP      r7,#0x12
        0x31001918:    1a000013    ....    BNE      0x3100196c
        0x3100191c:    e5d40026    &...    LDRB     r0,[r4,#0x26]
        0x31001920:    e3500064    d.P.    CMP      r0,#0x64
        0x31001924:    1a000008    ....    BNE      0x3100194c
        0x31001928:    e284602e    .`..    ADD      r6,r4,#0x2e
        0x3100192c:    e5d4002a    *...    LDRB     r0,[r4,#0x2a]
        0x31001930:    e5d4102b    +...    LDRB     r1,[r4,#0x2b]
        0x31001934:    e5d4202c    , ..    LDRB     r2,[r4,#0x2c]
        0x31001938:    e5d4302d    -0..    LDRB     r3,[r4,#0x2d]
        0x3100193c:    e180c401    ....    ORR      r12,r0,r1,LSL #8
        0x31001940:    e18cc802    ....    ORR      r12,r12,r2,LSL #16
        0x31001944:    e18c5c03    .\..    ORR      r5,r12,r3,LSL #24
        0x31001948:    ea000007    ....    B        0x3100196c
        0x3100194c:    e284603a    :`..    ADD      r6,r4,#0x3a
        0x31001950:    e5d40036    6...    LDRB     r0,[r4,#0x36]
        0x31001954:    e5d41037    7...    LDRB     r1,[r4,#0x37]
        0x31001958:    e5d42038    8 ..    LDRB     r2,[r4,#0x38]
        0x3100195c:    e5d43039    90..    LDRB     r3,[r4,#0x39]
        0x31001960:    e180c401    ....    ORR      r12,r0,r1,LSL #8
        0x31001964:    e18cc802    ....    ORR      r12,r12,r2,LSL #16
        0x31001968:    e18c5c03    .\..    ORR      r5,r12,r3,LSL #24
        0x3100196c:    e1a00005    ....    MOV      r0,r5
        0x31001970:    ebffff1d    ....    BL       print_hex  ; 0x310015ec
        0x31001974:    e1a00000    ....    NOP      
        0x31001978:    e3550000    ..U.    CMP      r5,#0
        0x3100197c:    da00000a    ....    BLE      0x310019ac
        0x31001980:    e1a00000    ....    NOP      
        0x31001984:    e3a00455    U...    MOV      r0,#0x55000000
        0x31001988:    e5900000    ....    LDR      r0,[r0,#0]
        0x3100198c:    e3100080    ....    TST      r0,#0x80
        0x31001990:    1afffffb    ....    BNE      0x31001984
        0x31001994:    e1d600b0    ....    LDRH     r0,[r6,#0]
        0x31001998:    e3a01455    U...    MOV      r1,#0x55000000
        0x3100199c:    e1c101b0    ....    STRH     r0,[r1,#0x10]
        0x310019a0:    e2866002    .`..    ADD      r6,r6,#2
        0x310019a4:    e2455002    .PE.    SUB      r5,r5,#2
        0x310019a8:    eafffff2    ....    B        0x31001978
        0x310019ac:    e8bd80f8    ....    LDMFD    r13!,{r3-r7,pc}
    IIS_init
        0x310019b0:    e3a00456    V...    MOV      r0,#0x56000000
        0x310019b4:    e5900040    @...    LDR      r0,[r0,#0x40]
        0x310019b8:    e3800f80    ....    ORR      r0,r0,#0x200
        0x310019bc:    e38000aa    ....    ORR      r0,r0,#0xaa
        0x310019c0:    e3a01456    V...    MOV      r1,#0x56000000
        0x310019c4:    e5810040    @...    STR      r0,[r1,#0x40]
        0x310019c8:    e3a00455    U...    MOV      r0,#0x55000000
        0x310019cc:    e5900000    ....    LDR      r0,[r0,#0]
        0x310019d0:    e3800001    ....    ORR      r0,r0,#1
        0x310019d4:    e3a01455    U...    MOV      r1,#0x55000000
        0x310019d8:    e5810000    ....    STR      r0,[r1,#0]
        0x310019dc:    e3a00455    U...    MOV      r0,#0x55000000
        0x310019e0:    e5900004    ....    LDR      r0,[r0,#4]
        0x310019e4:    e3800080    ....    ORR      r0,r0,#0x80
        0x310019e8:    e3a01455    U...    MOV      r1,#0x55000000
        0x310019ec:    e5810004    ....    STR      r0,[r1,#4]
        0x310019f0:    e3a00455    U...    MOV      r0,#0x55000000
        0x310019f4:    e590000c    ....    LDR      r0,[r0,#0xc]
        0x310019f8:    e3800d80    ....    ORR      r0,r0,#0x2000
        0x310019fc:    e3a01455    U...    MOV      r1,#0x55000000
        0x31001a00:    e581000c    ....    STR      r0,[r1,#0xc]
        0x31001a04:    e3a00455    U...    MOV      r0,#0x55000000
        0x31001a08:    e5900004    ....    LDR      r0,[r0,#4]
        0x31001a0c:    e3800004    ....    ORR      r0,r0,#4
        0x31001a10:    e3a01455    U...    MOV      r1,#0x55000000
        0x31001a14:    e5810004    ....    STR      r0,[r1,#4]
        0x31001a18:    e3a00455    U...    MOV      r0,#0x55000000
        0x31001a1c:    e5900000    ....    LDR      r0,[r0,#0]
        0x31001a20:    e3800002    ....    ORR      r0,r0,#2
        0x31001a24:    e3a01455    U...    MOV      r1,#0x55000000
        0x31001a28:    e5810000    ....    STR      r0,[r1,#0]
        0x31001a2c:    e3a000a5    ....    MOV      r0,#0xa5
        0x31001a30:    e3a01455    U...    MOV      r1,#0x55000000
        0x31001a34:    e5810008    ....    STR      r0,[r1,#8]
        0x31001a38:    e3a00455    U...    MOV      r0,#0x55000000
        0x31001a3c:    e5900004    ....    LDR      r0,[r0,#4]
        0x31001a40:    e3800008    ....    ORR      r0,r0,#8
        0x31001a44:    e3a01455    U...    MOV      r1,#0x55000000
        0x31001a48:    e5810004    ....    STR      r0,[r1,#4]
        0x31001a4c:    e3a00455    U...    MOV      r0,#0x55000000
        0x31001a50:    e5900004    ....    LDR      r0,[r0,#4]
        0x31001a54:    e3800001    ....    ORR      r0,r0,#1
        0x31001a58:    e3a01455    U...    MOV      r1,#0x55000000
        0x31001a5c:    e5810004    ....    STR      r0,[r1,#4]
        0x31001a60:    e1a0f00e    ....    MOV      pc,r14
    audio_init
        0x31001a64:    e52de004    ..-.    STR      r14,[r13,#-4]!
        0x31001a68:    ebfffe0b    ....    BL       L3_init  ; 0x3100129c
        0x31001a6c:    ebfffe9b    ....    BL       key_init  ; 0x310014e0
        0x31001a70:    e3a01050    P...    MOV      r1,#0x50
        0x31001a74:    e3a00016    ....    MOV      r0,#0x16
        0x31001a78:    ebfffe90    ....    BL       L3_write  ; 0x310014c0
        0x31001a7c:    e3a00ffa    ....    MOV      r0,#0x3e8
        0x31001a80:    ebfffdff    ....    BL       delay_ns  ; 0x31001284
        0x31001a84:    e3a01000    ....    MOV      r1,#0
        0x31001a88:    e3a00014    ....    MOV      r0,#0x14
        0x31001a8c:    ebfffe8b    ....    BL       L3_write  ; 0x310014c0
        0x31001a90:    e3a00ffa    ....    MOV      r0,#0x3e8
        0x31001a94:    ebfffdfa    ....    BL       delay_ns  ; 0x31001284
        0x31001a98:    ebffffc4    ....    BL       IIS_init  ; 0x310019b0
        0x31001a9c:    e3a00456    V...    MOV      r0,#0x56000000
        0x31001aa0:    e5900014    ....    LDR      r0,[r0,#0x14]
        0x31001aa4:    e3800001    ....    ORR      r0,r0,#1
        0x31001aa8:    e3a01456    V...    MOV      r1,#0x56000000
        0x31001aac:    e5810014    ....    STR      r0,[r1,#0x14]
        0x31001ab0:    e59f002c    ,...    LDR      r0,0x31001ae4
        0x31001ab4:    ebfffdf2    ....    BL       delay_ns  ; 0x31001284
        0x31001ab8:    e3a00456    V...    MOV      r0,#0x56000000
        0x31001abc:    e5900014    ....    LDR      r0,[r0,#0x14]
        0x31001ac0:    e3c00001    ....    BIC      r0,r0,#1
        0x31001ac4:    e3a01456    V...    MOV      r1,#0x56000000
        0x31001ac8:    e5810014    ....    STR      r0,[r1,#0x14]
        0x31001acc:    e3a00000    ....    MOV      r0,#0
        0x31001ad0:    e49df004    ....    LDR      pc,[r13],#4
    $d
        0x31001ad4:    55000010    ...U    DCD    1426063376
        0x31001ad8:    31002efc    ...1    DCD    822095612
        0x31001adc:    31002f00    ./.1    DCD    822095616
        0x31001ae0:    000d757e    ~u..    DCD    882046
        0x31001ae4:    000f4240    @B..    DCD    1000000
    __rt_memcpy_w
    $a
    .text
        0x31001ae8:    e92d4010    .@-.    STMFD    r13!,{r4,r14}
        0x31001aec:    e2522020      R.    SUBS     r2,r2,#0x20
        0x31001af0:    3a000005    ...:    BCC      _memcpy_small  ; 0x31001b0c
    _memcpy_aligned_loop
        0x31001af4:    28b15018    .P.(    LDMCSIA  r1!,{r3,r4,r12,r14}
        0x31001af8:    28a05018    .P.(    STMCSIA  r0!,{r3,r4,r12,r14}
        0x31001afc:    28b15018    .P.(    LDMCSIA  r1!,{r3,r4,r12,r14}
        0x31001b00:    28a05018    .P.(    STMCSIA  r0!,{r3,r4,r12,r14}
        0x31001b04:    22522020      R"    SUBCSS   r2,r2,#0x20
        0x31001b08:    2afffff9    ...*    BCS      _memcpy_aligned_loop  ; 0x31001af4
    _memcpy_small
        0x31001b0c:    e1b0ce02    ....    MOVS     r12,r2,LSL #28
        0x31001b10:    28b15018    .P.(    LDMCSIA  r1!,{r3,r4,r12,r14}
        0x31001b14:    28a05018    .P.(    STMCSIA  r0!,{r3,r4,r12,r14}
        0x31001b18:    48b10018    ...H    LDMMIIA  r1!,{r3,r4}
        0x31001b1c:    48a00018    ...H    STMMIIA  r0!,{r3,r4}
        0x31001b20:    e8bd4010    .@..    LDMFD    r13!,{r4,r14}
        0x31001b24:    e1b0cf02    ....    MOVS     r12,r2,LSL #30
        0x31001b28:    24913004    .0.$    LDRCS    r3,[r1],#4
        0x31001b2c:    24803004    .0.$    STRCS    r3,[r0],#4
        0x31001b30:    01a0f00e    ....    MOVEQ    pc,r14
    _memcpy_lastbytes
        0x31001b34:    e1b02f82    ./..    MOVS     r2,r2,LSL #31
        0x31001b38:    44d12001    . .D    LDRMIB   r2,[r1],#1
        0x31001b3c:    24d13001    .0.$    LDRCSB   r3,[r1],#1
        0x31001b40:    24d1c001    ...$    LDRCSB   r12,[r1],#1
        0x31001b44:    44c02001    . .D    STRMIB   r2,[r0],#1
        0x31001b48:    24c03001    .0.$    STRCSB   r3,[r0],#1
        0x31001b4c:    24c0c001    ...$    STRCSB   r12,[r0],#1
        0x31001b50:    e1a0f00e    ....    MOV      pc,r14
    __rt_sdiv
    .text
        0x31001b54:    e2102480    .$..    ANDS     r2,r0,#0x80000000
        0x31001b58:    42600000    ..`B    RSBMI    r0,r0,#0
        0x31001b5c:    e0323041    A02.    EORS     r3,r2,r1,ASR #32
        0x31001b60:    22611000    ..a"    RSBCS    r1,r1,#0
        0x31001b64:    e070c1a1    ..p.    RSBS     r12,r0,r1,LSR #3
        0x31001b68:    3a000020     ..:    BCC      0x31001bf0
        0x31001b6c:    e070c421    !.p.    RSBS     r12,r0,r1,LSR #8
        0x31001b70:    3a00000f    ...:    BCC      0x31001bb4
        0x31001b74:    e1a00400    ....    MOV      r0,r0,LSL #8
        0x31001b78:    e38224ff    .$..    ORR      r2,r2,#0xff000000
        0x31001b7c:    e070c221    !.p.    RSBS     r12,r0,r1,LSR #4
        0x31001b80:    3a000017    ...:    BCC      0x31001be4
        0x31001b84:    e070c421    !.p.    RSBS     r12,r0,r1,LSR #8
        0x31001b88:    3a000009    ...:    BCC      0x31001bb4
        0x31001b8c:    e1a00400    ....    MOV      r0,r0,LSL #8
        0x31001b90:    e38228ff    .(..    ORR      r2,r2,#0xff0000
        0x31001b94:    e070c421    !.p.    RSBS     r12,r0,r1,LSR #8
        0x31001b98:    21a00400    ...!    MOVCS    r0,r0,LSL #8
        0x31001b9c:    23822cff    .,.#    ORRCS    r2,r2,#0xff00
        0x31001ba0:    e070c221    !.p.    RSBS     r12,r0,r1,LSR #4
        0x31001ba4:    3a00000e    ...:    BCC      0x31001be4
        0x31001ba8:    e270c000    ..p.    RSBS     r12,r0,#0
        0x31001bac:    2a00001d    ...*    BCS      __rt_div0  ; 0x31001c28
        0x31001bb0:    21a00420     ..!    MOVCS    r0,r0,LSR #8
        0x31001bb4:    e070c3a1    ..p.    RSBS     r12,r0,r1,LSR #7
        0x31001bb8:    20411380    ..A     SUBCS    r1,r1,r0,LSL #7
        0x31001bbc:    e0a22002    . ..    ADC      r2,r2,r2
        0x31001bc0:    e070c321    !.p.    RSBS     r12,r0,r1,LSR #6
        0x31001bc4:    20411300    ..A     SUBCS    r1,r1,r0,LSL #6
        0x31001bc8:    e0a22002    . ..    ADC      r2,r2,r2
        0x31001bcc:    e070c2a1    ..p.    RSBS     r12,r0,r1,LSR #5
        0x31001bd0:    20411280    ..A     SUBCS    r1,r1,r0,LSL #5
        0x31001bd4:    e0a22002    . ..    ADC      r2,r2,r2
        0x31001bd8:    e070c221    !.p.    RSBS     r12,r0,r1,LSR #4
        0x31001bdc:    20411200    ..A     SUBCS    r1,r1,r0,LSL #4
        0x31001be0:    e0a22002    . ..    ADC      r2,r2,r2
        0x31001be4:    e070c1a1    ..p.    RSBS     r12,r0,r1,LSR #3
        0x31001be8:    20411180    ..A     SUBCS    r1,r1,r0,LSL #3
        0x31001bec:    e0a22002    . ..    ADC      r2,r2,r2
        0x31001bf0:    e070c121    !.p.    RSBS     r12,r0,r1,LSR #2
        0x31001bf4:    20411100    ..A     SUBCS    r1,r1,r0,LSL #2
        0x31001bf8:    e0a22002    . ..    ADC      r2,r2,r2
        0x31001bfc:    e070c0a1    ..p.    RSBS     r12,r0,r1,LSR #1
        0x31001c00:    20411080    ..A     SUBCS    r1,r1,r0,LSL #1
        0x31001c04:    e0a22002    . ..    ADC      r2,r2,r2
        0x31001c08:    e070c001    ..p.    RSBS     r12,r0,r1
        0x31001c0c:    20411000    ..A     SUBCS    r1,r1,r0
        0x31001c10:    e0b22002    . ..    ADCS     r2,r2,r2
        0x31001c14:    2affffe5    ...*    BCS      0x31001bb0
        0x31001c18:    e0320fc3    ..2.    EORS     r0,r2,r3,ASR #31
        0x31001c1c:    e0800fa3    ....    ADD      r0,r0,r3,LSR #31
        0x31001c20:    22611000    ..a"    RSBCS    r1,r1,#0
        0x31001c24:    e1a0f00e    ....    MOV      pc,r14
    __rt_div0
    .text
        0x31001c28:    e3a00002    ....    MOV      r0,#2
        0x31001c2c:    e3a01002    ....    MOV      r1,#2
        0x31001c30:    ea000006    ....    B        __32__rt_raise  ; 0x31001c50
    __rt_fp_status_addr
    .text
        0x31001c34:    e92d4010    .@-.    STMFD    r13!,{r4,r14}
        0x31001c38:    eb000001    ....    BL       __user_libspace  ; 0x31001c44
        0x31001c3c:    e2800004    ....    ADD      r0,r0,#4
        0x31001c40:    e8bd8010    ....    LDMFD    r13!,{r4,pc}
    __user_libspace
    .text
        0x31001c44:    e59f0000    ....    LDR      r0,0x31001c4c
        0x31001c48:    e1a0f00e    ....    MOV      pc,r14
    $d
        0x31001c4c:    31002f04    ./.1    DCD    822095620
    __32__rt_raise
    __rt_raise
    $a
    .text
        0x31001c50:    e92d4010    .@-.    STMFD    r13!,{r4,r14}
        0x31001c54:    eb000003    ....    BL       __raise  ; 0x31001c68
        0x31001c58:    e3500000    ..P.    CMP      r0,#0
        0x31001c5c:    08bd8010    ....    LDMEQFD  r13!,{r4,pc}
        0x31001c60:    e8bd4010    .@..    LDMFD    r13!,{r4,r14}
        0x31001c64:    ea000030    0...    B        _sys_exit  ; 0x31001d2c
    __raise
    .text
        0x31001c68:    e92d4070    p@-.    STMFD    r13!,{r4-r6,r14}
        0x31001c6c:    e59f6050    P`..    LDR      r6,0x31001cc4
        0x31001c70:    e1a05001    .P..    MOV      r5,r1
        0x31001c74:    e1a01000    ....    MOV      r1,r0
        0x31001c78:    e1a04000    .@..    MOV      r4,r0
        0x31001c7c:    e08f6006    .`..    ADD      r6,pc,r6
        0x31001c80:    e1a00006    ....    MOV      r0,r6
        0x31001c84:    ebffffff    ....    BL       0x31001c88
        0x31001c88:    e1500006    ..P.    CMP      r0,r6
        0x31001c8c:    e1a02000    . ..    MOV      r2,r0
        0x31001c90:    01a00004    ....    MOVEQ    r0,r4
        0x31001c94:    01a01005    ....    MOVEQ    r1,r5
        0x31001c98:    08bd4070    p@..    LDMEQFD  r13!,{r4-r6,r14}
        0x31001c9c:    0a000028    (...    BEQ      __default_signal_handler  ; 0x31001d44
        0x31001ca0:    e59f0020     ...    LDR      r0,0x31001cc8
        0x31001ca4:    e08f0000    ....    ADD      r0,pc,r0
        0x31001ca8:    e1520000    ..R.    CMP      r2,r0
        0x31001cac:    11a01005    ....    MOVNE    r1,r5
        0x31001cb0:    11a00004    ....    MOVNE    r0,r4
        0x31001cb4:    11a0e00f    ....    MOVNE    r14,pc
    $p
        0x31001cb8:    11a0f002    ....    MOVNE    pc,r2
        0x31001cbc:    e3a00000    ....    MOV      r0,#0
        0x31001cc0:    e8bd8070    p...    LDMFD    r13!,{r4-r6,pc}
    $d
        0x31001cc4:    ceffe37b    {...    DCD    3472876411
        0x31001cc8:    ceffe351    Q...    DCD    3472876369
    _fp_trap
    $a
    .text
        0x31001ccc:    e92d403c    <@-.    STMFD    r13!,{r2-r5,r14}
        0x31001cd0:    e92d0003    ..-.    STMFD    r13!,{r0,r1}
        0x31001cd4:    e24dd00c    ..M.    SUB      r13,r13,#0xc
        0x31001cd8:    e59d4028    (@..    LDR      r4,[r13,#0x28]
        0x31001cdc:    e28d5004    .P..    ADD      r5,r13,#4
        0x31001ce0:    e1a01005    ....    MOV      r1,r5
        0x31001ce4:    e28d3014    .0..    ADD      r3,r13,#0x14
        0x31001ce8:    e28d200c    . ..    ADD      r2,r13,#0xc
        0x31001cec:    e3a00000    ....    MOV      r0,#0
        0x31001cf0:    e58d4000    .@..    STR      r4,[r13,#0]
        0x31001cf4:    ebffffff    ....    BL       0x31001cf8
        0x31001cf8:    e3500000    ..P.    CMP      r0,#0
        0x31001cfc:    199d0003    ....    LDMNEIB  r13,{r0,r1}
        0x31001d00:    128dd01c    ....    ADDNE    r13,r13,#0x1c
        0x31001d04:    18bd8030    0...    LDMNEFD  r13!,{r4,r5,pc}
        0x31001d08:    e204147c    |...    AND      r1,r4,#0x7c000000
        0x31001d0c:    e3a00002    ....    MOV      r0,#2
        0x31001d10:    ebffffce    ....    BL       __32__rt_raise  ; 0x31001c50
        0x31001d14:    e3a00000    ....    MOV      r0,#0
        0x31001d18:    e3a01000    ....    MOV      r1,#0
        0x31001d1c:    e8850003    ....    STMIA    r5,{r0,r1}
        0x31001d20:    e99d0003    ....    LDMIB    r13,{r0,r1}
        0x31001d24:    e28dd01c    ....    ADD      r13,r13,#0x1c
        0x31001d28:    e8bd8030    0...    LDMFD    r13!,{r4,r5,pc}
    _sys_exit
    .text
        0x31001d2c:    e3a00018    ....    MOV      r0,#0x18
        0x31001d30:    e59f1008    ....    LDR      r1,0x31001d40
        0x31001d34:    ef123456    V4..    SWI      0x123456
        0x31001d38:    e1a0f00e    ....    MOV      pc,r14
    $d
    $f
        0x31001d3c:    00000168    h...    DCD    360
        0x31001d40:    00020026    &...    DCD    131110
    __default_signal_handler
    $a
    .text
        0x31001d44:    e92d4038    8@-.    STMFD    r13!,{r3-r5,r14}
        0x31001d48:    e2402001    . @.    SUB      r2,r0,#1
        0x31001d4c:    e352000d    ..R.    CMP      r2,#0xd
        0x31001d50:    228f50d4    .P."    ADDCS    r5,pc,#0xd4 ; #0x31001e2c
        0x31001d54:    e28f40cc    .@..    ADD      r4,pc,#0xcc ; #0x31001e28
        0x31001d58:    2a00001c    ...*    BCS      0x31001dd0
        0x31001d5c:    e59f30d8    .0..    LDR      r3,0x31001e3c
        0x31001d60:    e0602180    .!`.    RSB      r2,r0,r0,LSL #3
        0x31001d64:    e0822200    ."..    ADD      r2,r2,r0,LSL #4
        0x31001d68:    e08f3003    .0..    ADD      r3,pc,r3
        0x31001d6c:    e0822003    . ..    ADD      r2,r2,r3
        0x31001d70:    e2425017    .PB.    SUB      r5,r2,#0x17
        0x31001d74:    e3500002    ..P.    CMP      r0,#2
        0x31001d78:    1a00000e    ....    BNE      0x31001db8
        0x31001d7c:    e3110640    @...    TST      r1,#0x4000000
        0x31001d80:    128f40b8    .@..    ADDNE    r4,pc,#0xb8 ; #0x31001e40
        0x31001d84:    1a000011    ....    BNE      0x31001dd0
        0x31001d88:    e3110382    ....    TST      r1,#0x8000002
        0x31001d8c:    128f40c0    .@..    ADDNE    r4,pc,#0xc0 ; #0x31001e54
        0x31001d90:    1a00000e    ....    BNE      0x31001dd0
        0x31001d94:    e3110540    @...    TST      r1,#0x10000000
        0x31001d98:    128f40c4    .@..    ADDNE    r4,pc,#0xc4 ; #0x31001e64
        0x31001d9c:    1a00000b    ....    BNE      0x31001dd0
        0x31001da0:    e3110580    ....    TST      r1,#0x20000000
        0x31001da4:    128f40c4    .@..    ADDNE    r4,pc,#0xc4 ; #0x31001e70
        0x31001da8:    1a000008    ....    BNE      0x31001dd0
        0x31001dac:    e3110440    @...    TST      r1,#0x40000000
        0x31001db0:    128f40c4    .@..    ADDNE    r4,pc,#0xc4 ; #0x31001e7c
        0x31001db4:    ea000005    ....    B        0x31001dd0
        0x31001db8:    e3500008    ..P.    CMP      r0,#8
        0x31001dbc:    01a04001    .@..    MOVEQ    r4,r1
        0x31001dc0:    0a000002    ....    BEQ      0x31001dd0
        0x31001dc4:    e3500009    ..P.    CMP      r0,#9
        0x31001dc8:    03510001    ..Q.    CMPEQ    r1,#1
        0x31001dcc:    028f50b8    .P..    ADDEQ    r5,pc,#0xb8 ; #0x31001e8c
        0x31001dd0:    e3a0000a    ....    MOV      r0,#0xa
        0x31001dd4:    eb000033    3...    BL       _ttywrch  ; 0x31001ea8
        0x31001dd8:    e5d50000    ....    LDRB     r0,[r5,#0]
        0x31001ddc:    e3500000    ..P.    CMP      r0,#0
        0x31001de0:    0a000004    ....    BEQ      0x31001df8
        0x31001de4:    e4d50001    ....    LDRB     r0,[r5],#1
        0x31001de8:    eb00002e    ....    BL       _ttywrch  ; 0x31001ea8
        0x31001dec:    e5d50000    ....    LDRB     r0,[r5,#0]
        0x31001df0:    e3500000    ..P.    CMP      r0,#0
        0x31001df4:    1afffffa    ....    BNE      0x31001de4
        0x31001df8:    e5d40000    ....    LDRB     r0,[r4,#0]
        0x31001dfc:    e3500000    ..P.    CMP      r0,#0
        0x31001e00:    0a000004    ....    BEQ      0x31001e18
        0x31001e04:    e4d40001    ....    LDRB     r0,[r4],#1
        0x31001e08:    eb000026    &...    BL       _ttywrch  ; 0x31001ea8
        0x31001e0c:    e5d40000    ....    LDRB     r0,[r4,#0]
        0x31001e10:    e3500000    ..P.    CMP      r0,#0
        0x31001e14:    1afffffa    ....    BNE      0x31001e04
        0x31001e18:    e3a0000a    ....    MOV      r0,#0xa
        0x31001e1c:    eb000021    !...    BL       _ttywrch  ; 0x31001ea8
        0x31001e20:    e3a00001    ....    MOV      r0,#1
        0x31001e24:    e8bd8038    8...    LDMFD    r13!,{r3-r5,pc}
    $d
        0x31001e28:    00000000    ....    DCD    0
        0x31001e2c:    6e6b6e55    Unkn    DCD    1852534357
        0x31001e30:    206e776f    own     DCD    544110447
        0x31001e34:    6e676973    sign    DCD    1852270963
        0x31001e38:    00006c61    al..    DCD    27745
        0x31001e3c:    0000105c    \...    DCD    4188
        0x31001e40:    61766e49    Inva    DCD    1635151433
        0x31001e44:    2064696c    lid     DCD    543451500
        0x31001e48:    7265704f    Oper    DCD    1919250511
        0x31001e4c:    6f697461    atio    DCD    1869182049
        0x31001e50:    0000006e    n...    DCD    110
        0x31001e54:    69766944    Divi    DCD    1769367876
        0x31001e58:    42206564    de B    DCD    1109419364
        0x31001e5c:    655a2079    y Ze    DCD    1700405369
        0x31001e60:    00006f72    ro..    DCD    28530
        0x31001e64:    7265764f    Over    DCD    1919252047
        0x31001e68:    776f6c66    flow    DCD    2003790950
        0x31001e6c:    00000000    ....    DCD    0
        0x31001e70:    65646e55    Unde    DCD    1701080661
        0x31001e74:    6f6c6672    rflo    DCD    1869375090
        0x31001e78:    00000077    w...    DCD    119
        0x31001e7c:    78656e49    Inex    DCD    2019913289
        0x31001e80:    20746361    act     DCD    544498529
        0x31001e84:    75736552    Resu    DCD    1970496850
        0x31001e88:    0000746c    lt..    DCD    29804
        0x31001e8c:    6548203a    : He    DCD    1699225658
        0x31001e90:    6d207061    ap m    DCD    1830842465
        0x31001e94:    726f6d65    emor    DCD    1919905125
        0x31001e98:    6f632079    y co    DCD    1868767353
        0x31001e9c:    70757272    rrup    DCD    1886745202
        0x31001ea0:    00646574    ted.    DCD    6579572
    __32__I_use_semihosting_swi
    __I_use_semihosting_swi
    __semihosting_swi_guard
    $a
    .text
        0x31001ea4:    e1a0f00e    ....    MOV      pc,r14
    _ttywrch
    .text
        0x31001ea8:    e92d4008    .@-.    STMFD    r13!,{r3,r14}
        0x31001eac:    e5cd0000    ....    STRB     r0,[r13,#0]
        0x31001eb0:    e3a00003    ....    MOV      r0,#3
        0x31001eb4:    e1a0100d    ....    MOV      r1,r13
        0x31001eb8:    ef123456    V4..    SWI      0x123456
        0x31001ebc:    e8bd8008    ....    LDMFD    r13!,{r3,pc}
    _dadd
    x$fpl$dadd
        0x31001ec0:    e92d4010    .@-.    STMFD    r13!,{r4,r14}
        0x31001ec4:    e59fc480    ....    LDR      r12,0x3100234c
        0x31001ec8:    e1dc4081    .@..    BICS     r4,r12,r1,LSL #1
        0x31001ecc:    11dc4083    .@..    BICNES   r4,r12,r3,LSL #1
        0x31001ed0:    0a000059    Y...    BEQ      dadd_naninf  ; 0x3100203c
        0x31001ed4:    e1310003    ..1.    TEQ      r1,r3
        0x31001ed8:    42233480    .4#B    EORMI    r3,r3,#0x80000000
        0x31001edc:    4a00008b    ...J    BMI      _dsub1  ; 0x31002110
    _dadd1
        0x31001ee0:    e0504002    .@P.    SUBS     r4,r0,r2
        0x31001ee4:    e0d1e003    ....    SBCS     r14,r1,r3
        0x31001ee8:    2a000003    ...*    BCS      dadd_swapped  ; 0x31001efc
        0x31001eec:    e0922004    . ..    ADDS     r2,r2,r4
        0x31001ef0:    e0a3300e    .0..    ADC      r3,r3,r14
        0x31001ef4:    e0500004    ..P.    SUBS     r0,r0,r4
        0x31001ef8:    e0c1100e    ....    SBC      r1,r1,r14
    dadd_swapped
        0x31001efc:    e1a04a21    !J..    MOV      r4,r1,LSR #20
        0x31001f00:    e044ea23    #.D.    SUB      r14,r4,r3,LSR #20
        0x31001f04:    e11c0083    ....    TST      r12,r3,LSL #1
        0x31001f08:    0a000038    8...    BEQ      dadd_uncommon  ; 0x31001ff0
        0x31001f0c:    e1c11a04    ....    BIC      r1,r1,r4,LSL #20
        0x31001f10:    e1c3300c    .0..    BIC      r3,r3,r12
        0x31001f14:    e3833940    @9..    ORR      r3,r3,#0x100000
    dadd_doadd
        0x31001f18:    e27ec020     .~.    RSBS     r12,r14,#0x20
        0x31001f1c:    3a000015    ...:    BCC      dadd_bigshift  ; 0x31001f78
        0x31001f20:    e0900e32    2...    ADDS     r0,r0,r2,LSR r14
        0x31001f24:    e0a11e33    3...    ADC      r1,r1,r3,LSR r14
        0x31001f28:    e0900c13    ....    ADDS     r0,r0,r3,LSL r12
        0x31001f2c:    e2b11000    ....    ADCS     r1,r1,#0
        0x31001f30:    e3510940    @.Q.    CMP      r1,#0x100000
        0x31001f34:    2a000019    ...*    BCS      dadd_carry  ; 0x31001fa0
        0x31001f38:    e0811a04    ....    ADD      r1,r1,r4,LSL #20
    dadd_nocarry
        0x31001f3c:    e8bd4010    .@..    LDMFD    r13!,{r4,r14}
        0x31001f40:    e1b02c12    .,..    MOVS     r2,r2,LSL r12
        0x31001f44:    51a0f00e    ...Q    MOVPL    pc,r14
        0x31001f48:    e2900001    ....    ADDS     r0,r0,#1
        0x31001f4c:    31b02082    . .1    MOVCCS   r2,r2,LSL #1
        0x31001f50:    11a0f00e    ....    MOVNE    pc,r14
    dadd_roundeven
        0x31001f54:    e3500000    ..P.    CMP      r0,#0
        0x31001f58:    13c00001    ....    BICNE    r0,r0,#1
        0x31001f5c:    02a11000    ....    ADCEQ    r1,r1,#0
    dadd_check_overflow_inx
        0x31001f60:    e1a03081    .0..    MOV      r3,r1,LSL #1
        0x31001f64:    e3730980    ..s.    CMN      r3,#0x200000
        0x31001f68:    31a0f00e    ...1    MOVCC    pc,r14
        0x31001f6c:    e59fc3dc    ....    LDR      r12,0x31002350
        0x31001f70:    22411460    `.A"    SUBCS    r1,r1,#0x60000000
        0x31001f74:    ea0002ec    ....    B        __fpl_exception  ; 0x31002b2c
    dadd_bigshift
        0x31001f78:    e3520001    ..R.    CMP      r2,#1
        0x31001f7c:    e0a32003    . ..    ADC      r2,r3,r3
        0x31001f80:    e24ee020     .N.    SUB      r14,r14,#0x20
        0x31001f84:    e27ec01f    ..~.    RSBS     r12,r14,#0x1f
        0x31001f88:    33a0c000    ...3    MOVCC    r12,#0
        0x31001f8c:    20900e33    3..     ADDCSS   r0,r0,r3,LSR r14
        0x31001f90:    e0a11a04    ....    ADC      r1,r1,r4,LSL #20
        0x31001f94:    e1540a21    !.T.    CMP      r4,r1,LSR #20
        0x31001f98:    0affffe7    ....    BEQ      dadd_nocarry  ; 0x31001f3c
        0x31001f9c:    e0411a04    ..A.    SUB      r1,r1,r4,LSL #20
    dadd_carry
        0x31001fa0:    e2811940    @...    ADD      r1,r1,#0x100000
        0x31001fa4:    e1b010a1    ....    MOVS     r1,r1,LSR #1
        0x31001fa8:    e0811a04    ....    ADD      r1,r1,r4,LSL #20
        0x31001fac:    e8bd4010    .@..    LDMFD    r13!,{r4,r14}
        0x31001fb0:    e1b00060    `...    MOVS     r0,r0,RRX
        0x31001fb4:    3a000007    ...:    BCC      dadd_check_overflow_exact  ; 0x31001fd8
        0x31001fb8:    e2b00000    ....    ADCS     r0,r0,#0
        0x31001fbc:    31b0cc12    ...1    MOVCCS   r12,r2,LSL r12
        0x31001fc0:    1a000004    ....    BNE      dadd_check_overflow_exact  ; 0x31001fd8
        0x31001fc4:    eaffffe2    ....    B        dadd_roundeven  ; 0x31001f54
        0x31001fc8:    e2900001    ....    ADDS     r0,r0,#1
        0x31001fcc:    31b02082    . .1    MOVCCS   r2,r2,LSL #1
        0x31001fd0:    1affffe2    ....    BNE      dadd_check_overflow_inx  ; 0x31001f60
        0x31001fd4:    eaffffde    ....    B        dadd_roundeven  ; 0x31001f54
    dadd_check_overflow_exact
        0x31001fd8:    e1a03081    .0..    MOV      r3,r1,LSL #1
        0x31001fdc:    e3730980    ..s.    CMN      r3,#0x200000
        0x31001fe0:    31a0f00e    ...1    MOVCC    pc,r14
        0x31001fe4:    e59fc364    d...    LDR      r12,0x31002350
        0x31001fe8:    e2411460    `.A.    SUB      r1,r1,#0x60000000
        0x31001fec:    ea0002ce    ....    B        __fpl_exception  ; 0x31002b2c
    dadd_uncommon
        0x31001ff0:    e192c083    ....    ORRS     r12,r2,r3,LSL #1
        0x31001ff4:    0a000009    ....    BEQ      dadd_bzero  ; 0x31002020
        0x31001ff8:    e1b0ca84    ....    MOVS     r12,r4,LSL #21
        0x31001ffc:    e1c11a04    ....    BIC      r1,r1,r4,LSL #20
        0x31002000:    13c33480    .4..    BICNE    r3,r3,#0x80000000
        0x31002004:    124ee001    ..N.    SUBNE    r14,r14,#1
        0x31002008:    1affffc2    ....    BNE      dadd_doadd  ; 0x31001f18
        0x3100200c:    e8bd4010    .@..    LDMFD    r13!,{r4,r14}
        0x31002010:    e0900002    ....    ADDS     r0,r0,r2
        0x31002014:    e0a11003    ....    ADC      r1,r1,r3
        0x31002018:    e3a0c011    ....    MOV      r12,#0x11
        0x3100201c:    ea0000a8    ....    B        daddsub_denorm  ; 0x310022c4
    dadd_bzero
        0x31002020:    e1b0ca84    ....    MOVS     r12,r4,LSL #21
        0x31002024:    e8bd4010    .@..    LDMFD    r13!,{r4,r14}
        0x31002028:    11a0f00e    ....    MOVNE    pc,r14
        0x3100202c:    e190c081    ....    ORRS     r12,r0,r1,LSL #1
        0x31002030:    01a0f00e    ....    MOVEQ    pc,r14
        0x31002034:    e3a0c011    ....    MOV      r12,#0x11
        0x31002038:    ea0000a1    ....    B        daddsub_denorm  ; 0x310022c4
    dadd_naninf
        0x3100203c:    e3500001    ..P.    CMP      r0,#1
        0x31002040:    e0a14001    .@..    ADC      r4,r1,r1
        0x31002044:    e3520001    ..R.    CMP      r2,#1
        0x31002048:    e0a3e003    ....    ADC      r14,r3,r3
        0x3100204c:    e154000c    ..T.    CMP      r4,r12
        0x31002050:    915e000c    ..^.    CMPLS    r14,r12
        0x31002054:    e59fc2f8    ....    LDR      r12,0x31002354
        0x31002058:    e8bd4010    .@..    LDMFD    r13!,{r4,r14}
        0x3100205c:    8a0000be    ....    BHI      __fpl_dcheck_NaN2  ; 0x3100235c
        0x31002060:    eaffffff    ....    B        __fpl_inf_dadd  ; 0x31002064
    __fpl_inf_dadd
        0x31002064:    e3500001    ..P.    CMP      r0,#1
        0x31002068:    e0a10001    ....    ADC      r0,r1,r1
        0x3100206c:    e3520001    ..R.    CMP      r2,#1
        0x31002070:    e0a32003    . ..    ADC      r2,r3,r3
        0x31002074:    e1500002    ..P.    CMP      r0,r2
        0x31002078:    0a000005    ....    BEQ      dadd_twoinf  ; 0x31002094
        0x3100207c:    e3700980    ..p.    CMN      r0,#0x200000
        0x31002080:    03a00000    ....    MOVEQ    r0,#0
        0x31002084:    01a0f00e    ....    MOVEQ    pc,r14
        0x31002088:    e1a01003    ....    MOV      r1,r3
        0x3100208c:    e3a00000    ....    MOV      r0,#0
        0x31002090:    e1a0f00e    ....    MOV      pc,r14
    dadd_twoinf
        0x31002094:    e3a00000    ....    MOV      r0,#0
        0x31002098:    e1310003    ..1.    TEQ      r1,r3
        0x3100209c:    51a0f00e    ...Q    MOVPL    pc,r14
        0x310020a0:    e3a02000    . ..    MOV      r2,#0
        0x310020a4:    e59fc2a8    ....    LDR      r12,0x31002354
        0x310020a8:    ea00029f    ....    B        __fpl_exception  ; 0x31002b2c
    _drsb
        0x310020ac:    e92d4010    .@-.    STMFD    r13!,{r4,r14}
        0x310020b0:    e59fc294    ....    LDR      r12,0x3100234c
        0x310020b4:    e1dc4081    .@..    BICS     r4,r12,r1,LSL #1
        0x310020b8:    11dc4083    .@..    BICNES   r4,r12,r3,LSL #1
        0x310020bc:    0a000004    ....    BEQ      drsb_naninf  ; 0x310020d4
        0x310020c0:    e1310003    ..1.    TEQ      r1,r3
        0x310020c4:    e2211480    ..!.    EOR      r1,r1,#0x80000000
        0x310020c8:    4affff84    ...J    BMI      _dadd1  ; 0x31001ee0
        0x310020cc:    e2233480    .4#.    EOR      r3,r3,#0x80000000
        0x310020d0:    ea00000e    ....    B        _dsub1  ; 0x31002110
    drsb_naninf
        0x310020d4:    e0211003    ..!.    EOR      r1,r1,r3
        0x310020d8:    e0200002    .. .    EOR      r0,r0,r2
        0x310020dc:    e0233001    .0#.    EOR      r3,r3,r1
        0x310020e0:    e0222000    . ".    EOR      r2,r2,r0
        0x310020e4:    e0211003    ..!.    EOR      r1,r1,r3
        0x310020e8:    e0200002    .. .    EOR      r0,r0,r2
        0x310020ec:    ea00007a    z...    B        dsub_naninf  ; 0x310022dc
    _dsub
        0x310020f0:    e92d4010    .@-.    STMFD    r13!,{r4,r14}
        0x310020f4:    e59fc250    P...    LDR      r12,0x3100234c
        0x310020f8:    e1dc4081    .@..    BICS     r4,r12,r1,LSL #1
        0x310020fc:    11dc4083    .@..    BICNES   r4,r12,r3,LSL #1
        0x31002100:    0a000075    u...    BEQ      dsub_naninf  ; 0x310022dc
        0x31002104:    e1310003    ..1.    TEQ      r1,r3
        0x31002108:    42233480    .4#B    EORMI    r3,r3,#0x80000000
        0x3100210c:    4affff73    s..J    BMI      _dadd1  ; 0x31001ee0
    _dsub1
        0x31002110:    e0504002    .@P.    SUBS     r4,r0,r2
        0x31002114:    e0d1e003    ....    SBCS     r14,r1,r3
        0x31002118:    2a000004    ...*    BCS      dsub_swapped  ; 0x31002130
        0x3100211c:    e22ee480    ....    EOR      r14,r14,#0x80000000
        0x31002120:    e0922004    . ..    ADDS     r2,r2,r4
        0x31002124:    e0a3300e    .0..    ADC      r3,r3,r14
        0x31002128:    e0500004    ..P.    SUBS     r0,r0,r4
        0x3100212c:    e0c1100e    ....    SBC      r1,r1,r14
    dsub_swapped
        0x31002130:    e1a04a21    !J..    MOV      r4,r1,LSR #20
        0x31002134:    e044ea23    #.D.    SUB      r14,r4,r3,LSR #20
        0x31002138:    e11c0083    ....    TST      r12,r3,LSL #1
        0x3100213c:    0a00004c    L...    BEQ      dsub_uncommon  ; 0x31002274
        0x31002140:    e1c11a04    ....    BIC      r1,r1,r4,LSL #20
        0x31002144:    e1c330cc    .0..    BIC      r3,r3,r12,ASR #1
        0x31002148:    e2722000    . r.    RSBS     r2,r2,#0
        0x3100214c:    e0e330cc    .0..    RSC      r3,r3,r12,ASR #1
    dsub_dosub
        0x31002150:    e27ec020     .~.    RSBS     r12,r14,#0x20
        0x31002154:    3a000010    ...:    BCC      dsub_bigshift  ; 0x3100219c
        0x31002158:    e0900e32    2...    ADDS     r0,r0,r2,LSR r14
        0x3100215c:    e0a11e53    S...    ADC      r1,r1,r3,ASR r14
        0x31002160:    e0900c13    ....    ADDS     r0,r0,r3,LSL r12
        0x31002164:    e2b11000    ....    ADCS     r1,r1,#0
        0x31002168:    4a000015    ...J    BMI      dsub_borrow  ; 0x310021c4
    dsub_noborrow
        0x3100216c:    e0811a04    ....    ADD      r1,r1,r4,LSL #20
        0x31002170:    e8bd4010    .@..    LDMFD    r13!,{r4,r14}
        0x31002174:    e1b02c12    .,..    MOVS     r2,r2,LSL r12
        0x31002178:    e3a0c149    I...    MOV      r12,#0x40000012
        0x3100217c:    51a0f00e    ...Q    MOVPL    pc,r14
        0x31002180:    e2900001    ....    ADDS     r0,r0,#1
        0x31002184:    13520480    ..R.    CMPNE    r2,#0x80000000
        0x31002188:    11a0f00e    ....    MOVNE    pc,r14
        0x3100218c:    e3500000    ..P.    CMP      r0,#0
        0x31002190:    02811001    ....    ADDEQ    r1,r1,#1
        0x31002194:    13c00001    ....    BICNE    r0,r0,#1
        0x31002198:    e1a0f00e    ....    MOV      pc,r14
    dsub_bigshift
        0x3100219c:    e092c002    ....    ADDS     r12,r2,r2
        0x310021a0:    e0a32003    . ..    ADC      r2,r3,r3
        0x310021a4:    13a0c001    ....    MOVNE    r12,#1
        0x310021a8:    e18c2082    . ..    ORR      r2,r12,r2,LSL #1
        0x310021ac:    e24ee020     .N.    SUB      r14,r14,#0x20
        0x310021b0:    e27ec01e    ..~.    RSBS     r12,r14,#0x1e
        0x310021b4:    9a000027    '...    BLS      dsub_hugeshift  ; 0x31002258
        0x310021b8:    e0900e53    S...    ADDS     r0,r0,r3,ASR r14
        0x310021bc:    e2d11000    ....    SBCS     r1,r1,#0
        0x310021c0:    5affffe9    ...Z    BPL      dsub_noborrow  ; 0x3100216c
    dsub_borrow
        0x310021c4:    e28cc001    ....    ADD      r12,r12,#1
        0x310021c8:    e1b0cc12    ....    MOVS     r12,r2,LSL r12
        0x310021cc:    e0b00000    ....    ADCS     r0,r0,r0
        0x310021d0:    e0a11001    ....    ADC      r1,r1,r1
        0x310021d4:    e081ea84    ....    ADD      r14,r1,r4,LSL #21
        0x310021d8:    e1b0eaae    ....    MOVS     r14,r14,LSR #21
        0x310021dc:    9a000008    ....    BLS      dsub_renormalize  ; 0x31002204
        0x310021e0:    e0811a04    ....    ADD      r1,r1,r4,LSL #20
        0x310021e4:    e8bd4010    .@..    LDMFD    r13!,{r4,r14}
        0x310021e8:    e0900fac    ....    ADDS     r0,r0,r12,LSR #31
        0x310021ec:    335c0480    ..\3    CMPCC    r12,#0x80000000
        0x310021f0:    11a0f00e    ....    MOVNE    pc,r14
        0x310021f4:    e3500000    ..P.    CMP      r0,#0
        0x310021f8:    02811001    ....    ADDEQ    r1,r1,#1
        0x310021fc:    13c00001    ....    BICNE    r0,r0,#1
        0x31002200:    e1a0f00e    ....    MOV      pc,r14
    dsub_renormalize
        0x31002204:    2a000015    ...*    BCS      dsub_ex_one  ; 0x31002260
        0x31002208:    e2911980    ....    ADDS     r1,r1,#0x200000
        0x3100220c:    03500000    ..P.    CMPEQ    r0,#0
        0x31002210:    08bd4010    .@..    LDMEQFD  r13!,{r4,r14}
        0x31002214:    0a000027    '...    BEQ      dsub_retzero  ; 0x310022b8
        0x31002218:    e1a0e5a4    ....    MOV      r14,r4,LSR #11
        0x3100221c:    e3c44e80    .N..    BIC      r4,r4,#0x800
        0x31002220:    e2444002    .@D.    SUB      r4,r4,#2
    dsub_renormloop
        0x31002224:    e0900000    ....    ADDS     r0,r0,r0
        0x31002228:    e0a11001    ....    ADC      r1,r1,r1
        0x3100222c:    e2444001    .@D.    SUB      r4,r4,#1
        0x31002230:    e3110940    @...    TST      r1,#0x100000
        0x31002234:    0afffffa    ....    BEQ      dsub_renormloop  ; 0x31002224
        0x31002238:    e0811f8e    ....    ADD      r1,r1,r14,LSL #31
        0x3100223c:    e0811a04    ....    ADD      r1,r1,r4,LSL #20
        0x31002240:    e3540000    ..T.    CMP      r4,#0
        0x31002244:    e8bd4010    .@..    LDMFD    r13!,{r4,r14}
        0x31002248:    c1a0f00e    ....    MOVGT    pc,r14
        0x3100224c:    e2811460    `...    ADD      r1,r1,#0x60000000
        0x31002250:    e3a0c012    ....    MOV      r12,#0x12
        0x31002254:    ea0001a8    ....    B        __dunder  ; 0x310028fc
    dsub_hugeshift
        0x31002258:    e0811a04    ....    ADD      r1,r1,r4,LSL #20
        0x3100225c:    e8bd8010    ....    LDMFD    r13!,{r4,pc}
    dsub_ex_one
        0x31002260:    e1b010c1    ....    MOVS     r1,r1,ASR #1
        0x31002264:    e1a00060    `...    MOV      r0,r0,RRX
        0x31002268:    e0811a04    ....    ADD      r1,r1,r4,LSL #20
        0x3100226c:    e8bd4010    .@..    LDMFD    r13!,{r4,r14}
        0x31002270:    ea000012    ....    B        dsub_denorm  ; 0x310022c0
    dsub_uncommon
        0x31002274:    e192c603    ....    ORRS     r12,r2,r3,LSL #12
        0x31002278:    0a00000b    ....    BEQ      dsub_bzero  ; 0x310022ac
        0x3100227c:    e1b0ca84    ....    MOVS     r12,r4,LSL #21
        0x31002280:    e1c11a04    ....    BIC      r1,r1,r4,LSL #20
        0x31002284:    0a000004    ....    BEQ      dsub_both_denorm  ; 0x3100229c
        0x31002288:    e3c33480    .4..    BIC      r3,r3,#0x80000000
        0x3100228c:    e24ee001    ..N.    SUB      r14,r14,#1
        0x31002290:    e2722000    . r.    RSBS     r2,r2,#0
        0x31002294:    e2e33000    .0..    RSC      r3,r3,#0
        0x31002298:    eaffffac    ....    B        dsub_dosub  ; 0x31002150
    dsub_both_denorm
        0x3100229c:    e0500002    ..P.    SUBS     r0,r0,r2
        0x310022a0:    e0c11003    ....    SBC      r1,r1,r3
        0x310022a4:    e8bd4010    .@..    LDMFD    r13!,{r4,r14}
        0x310022a8:    ea000004    ....    B        dsub_denorm  ; 0x310022c0
    dsub_bzero
        0x310022ac:    e8bd4010    .@..    LDMFD    r13!,{r4,r14}
        0x310022b0:    e190c081    ....    ORRS     r12,r0,r1,LSL #1
        0x310022b4:    1a000001    ....    BNE      dsub_denorm  ; 0x310022c0
    dsub_retzero
        0x310022b8:    e3a01000    ....    MOV      r1,#0
        0x310022bc:    e1a0f00e    ....    MOV      pc,r14
    dsub_denorm
        0x310022c0:    e3a0c012    ....    MOV      r12,#0x12
    daddsub_denorm
        0x310022c4:    e1b02081    . ..    MOVS     r2,r1,LSL #1
        0x310022c8:    01100000    ....    TSTEQ    r0,r0
        0x310022cc:    0afffff9    ....    BEQ      dsub_retzero  ; 0x310022b8
        0x310022d0:    e3520980    ..R.    CMP      r2,#0x200000
        0x310022d4:    21a0f00e    ...!    MOVCS    pc,r14
        0x310022d8:    ea0001e0    ....    B        __dunder_d  ; 0x31002a60
    dsub_naninf
        0x310022dc:    e3500001    ..P.    CMP      r0,#1
        0x310022e0:    e0a14001    .@..    ADC      r4,r1,r1
        0x310022e4:    e3520001    ..R.    CMP      r2,#1
        0x310022e8:    e0a3e003    ....    ADC      r14,r3,r3
        0x310022ec:    e154000c    ..T.    CMP      r4,r12
        0x310022f0:    915e000c    ..^.    CMPLS    r14,r12
        0x310022f4:    e59fc05c    \...    LDR      r12,0x31002358
        0x310022f8:    e8bd4010    .@..    LDMFD    r13!,{r4,r14}
        0x310022fc:    8a000016    ....    BHI      __fpl_dcheck_NaN2  ; 0x3100235c
        0x31002300:    eaffffff    ....    B        __fpl_inf_dsub  ; 0x31002304
    __fpl_inf_dsub
        0x31002304:    e3500001    ..P.    CMP      r0,#1
        0x31002308:    e0a10001    ....    ADC      r0,r1,r1
        0x3100230c:    e3520001    ..R.    CMP      r2,#1
        0x31002310:    e0a32003    . ..    ADC      r2,r3,r3
        0x31002314:    e1500002    ..P.    CMP      r0,r2
        0x31002318:    0a000005    ....    BEQ      dsub_twoinf  ; 0x31002334
        0x3100231c:    e3700980    ..p.    CMN      r0,#0x200000
        0x31002320:    03a00000    ....    MOVEQ    r0,#0
        0x31002324:    01a0f00e    ....    MOVEQ    pc,r14
        0x31002328:    e2231480    ..#.    EOR      r1,r3,#0x80000000
        0x3100232c:    e3a00000    ....    MOV      r0,#0
        0x31002330:    e1a0f00e    ....    MOV      pc,r14
    dsub_twoinf
        0x31002334:    e3a00000    ....    MOV      r0,#0
        0x31002338:    e1310003    ..1.    TEQ      r1,r3
        0x3100233c:    41a0f00e    ...A    MOVMI    pc,r14
        0x31002340:    e3a02000    . ..    MOV      r2,#0
        0x31002344:    e59fc00c    ....    LDR      r12,0x31002358
        0x31002348:    ea0001f7    ....    B        __fpl_exception  ; 0x31002b2c
    $d
        0x3100234c:    ffe00000    ....    DCD    4292870144
        0x31002350:    10000011    ....    DCD    268435473
        0x31002354:    04000011    ....    DCD    67108881
        0x31002358:    04000012    ....    DCD    67108882
    __fpl_dcheck_NaN2
    $a
    x$fpl$dcheck
        0x3100235c:    e92d0030    0.-.    STMFD    r13!,{r4,r5}
        0x31002360:    e3a05940    @Y..    MOV      r5,#0x100000
        0x31002364:    e3500001    ..P.    CMP      r0,#1
        0x31002368:    e0a54081    .@..    ADC      r4,r5,r1,LSL #1
        0x3100236c:    e3520001    ..R.    CMP      r2,#1
        0x31002370:    e0a55083    .P..    ADC      r5,r5,r3,LSL #1
        0x31002374:    e3740940    @.t.    CMN      r4,#0x100000
        0x31002378:    93750940    @.u.    CMNLS    r5,#0x100000
        0x3100237c:    8a000004    ....    BHI      dcheck_except  ; 0x31002394
        0x31002380:    e3540940    @.T.    CMP      r4,#0x100000
        0x31002384:    e8bd0030    0...    LDMFD    r13!,{r4,r5}
        0x31002388:    21a01003    ...!    MOVCS    r1,r3
        0x3100238c:    21a00002    ...!    MOVCS    r0,r2
        0x31002390:    ea00023e    >...    B        __fpl_return_NaN  ; 0x31002c90
    dcheck_except
        0x31002394:    e8bd0030    0...    LDMFD    r13!,{r4,r5}
        0x31002398:    ea0001e3    ....    B        __fpl_exception  ; 0x31002b2c
    __fpl_dcheck_NaN1
    x$fpl$dcheck1
        0x3100239c:    e3110a80    ....    TST      r1,#0x80000
        0x310023a0:    0a0001e1    ....    BEQ      __fpl_exception  ; 0x31002b2c
        0x310023a4:    e20c204f    O ..    AND      r2,r12,#0x4f
        0x310023a8:    e3520048    H.R.    CMP      r2,#0x48
        0x310023ac:    1a000237    7...    BNE      __fpl_return_NaN  ; 0x31002c90
        0x310023b0:    ea0001dd    ....    B        __fpl_exception  ; 0x31002b2c
    __fpl_dcmp_InfNaN
    x$fpl$dcmpinfnan
        0x310023b4:    e92d4000    .@-.    STMFD    r13!,{r14}
        0x310023b8:    e3a0e980    ....    MOV      r14,#0x200000
        0x310023bc:    e17e0081    ..~.    CMN      r14,r1,LSL #1
        0x310023c0:    03500000    ..P.    CMPEQ    r0,#0
        0x310023c4:    917e0083    ..~.    CMNLS    r14,r3,LSL #1
        0x310023c8:    03520000    ..R.    CMPEQ    r2,#0
        0x310023cc:    8a00000e    ....    BHI      dcmp_found_NaN  ; 0x3100240c
        0x310023d0:    e8bd4000    .@..    LDMFD    r13!,{r14}
        0x310023d4:    eaffffff    ....    B        __fpl_inf_dcmp  ; 0x310023d8
    __fpl_inf_dcmp
        0x310023d8:    e191c003    ....    ORRS     r12,r1,r3
        0x310023dc:    4a000003    ...J    BMI      dcmp_neg  ; 0x310023f0
        0x310023e0:    e1510003    ..Q.    CMP      r1,r3
        0x310023e4:    01500002    ..P.    CMPEQ    r0,r2
        0x310023e8:    6a000003    ...j    BVS      dcmp_clear_v  ; 0x310023fc
        0x310023ec:    e1a0f00e    ....    MOV      pc,r14
    dcmp_neg
        0x310023f0:    e1530001    ..S.    CMP      r3,r1
        0x310023f4:    01520000    ..R.    CMPEQ    r2,r0
        0x310023f8:    71a0f00e    ...q    MOVVC    pc,r14
    dcmp_clear_v
        0x310023fc:    e3a0c001    ....    MOV      r12,#1
        0x31002400:    335c0002    ..\3    CMPCC    r12,#2
        0x31002404:    635c0000    ..\c    CMPVS    r12,#0
        0x31002408:    e1a0f00e    ....    MOV      pc,r14
    dcmp_found_NaN
        0x3100240c:    e8bd4000    .@..    LDMFD    r13!,{r14}
        0x31002410:    e31c0a50    P...    TST      r12,#0x50000
        0x31002414:    1a0001c4    ....    BNE      __fpl_exception  ; 0x31002b2c
        0x31002418:    eaffffcf    ....    B        __fpl_dcheck_NaN2  ; 0x3100235c
    _dfix
    x$fpl$dfix
        0x3100241c:    e92d0003    ..-.    STMFD    r13!,{r0,r1}
        0x31002420:    e1b02a41    A*..    MOVS     r2,r1,ASR #20
        0x31002424:    e1a03581    .5..    MOV      r3,r1,LSL #11
        0x31002428:    e1833aa0    .:..    ORR      r3,r3,r0,LSR #21
        0x3100242c:    13833480    .4..    ORRNE    r3,r3,#0x80000000
        0x31002430:    4a000008    ...J    BMI      dfix_negative  ; 0x31002458
        0x31002434:    e2422fe0    ./B.    SUB      r2,r2,#0x380
        0x31002438:    e272209e    . r.    RSBS     r2,r2,#0x9e
        0x3100243c:    da000013    ....    BLE      dfix_ivo  ; 0x31002490
        0x31002440:    e35200ff    ..R.    CMP      r2,#0xff
        0x31002444:    c3a01000    ....    MOVGT    r1,#0
        0x31002448:    d1a01233    3...    MOVLE    r1,r3,LSR r2
        0x3100244c:    e1a00001    ....    MOV      r0,r1
        0x31002450:    e28dd008    ....    ADD      r13,r13,#8
        0x31002454:    e1a0f00e    ....    MOV      pc,r14
    dfix_negative
        0x31002458:    e1a02a82    .*..    MOV      r2,r2,LSL #21
        0x3100245c:    e1b02aa2    .*..    MOVS     r2,r2,LSR #21
        0x31002460:    03c33480    .4..    BICEQ    r3,r3,#0x80000000
        0x31002464:    e3a01000    ....    MOV      r1,#0
        0x31002468:    e2422fe0    ./B.    SUB      r2,r2,#0x380
        0x3100246c:    e272209e    . r.    RSBS     r2,r2,#0x9e
        0x31002470:    ba000006    ....    BLT      dfix_ivo  ; 0x31002490
        0x31002474:    e35200ff    ..R.    CMP      r2,#0xff
        0x31002478:    d0411233    3.A.    SUBLE    r1,r1,r3,LSR r2
        0x3100247c:    e3510000    ..Q.    CMP      r1,#0
        0x31002480:    d28dd008    ....    ADDLE    r13,r13,#8
        0x31002484:    d1a00001    ....    MOVLE    r0,r1
        0x31002488:    d1a0f00e    ....    MOVLE    pc,r14
        0x3100248c:    eaffffff    ....    B        dfix_ivo  ; 0x31002490
    dfix_ivo
        0x31002490:    e8bd0003    ....    LDMFD    r13!,{r0,r1}
        0x31002494:    e59fc020     ...    LDR      r12,0x310024bc
        0x31002498:    e3500001    ..P.    CMP      r0,#1
        0x3100249c:    e0a13001    .0..    ADC      r3,r1,r1
        0x310024a0:    e3730980    ..s.    CMN      r3,#0x200000
        0x310024a4:    838ccb40    @...    ORRHI    r12,r12,#0x10000
        0x310024a8:    8affffbb    ....    BHI      __fpl_dcheck_NaN1  ; 0x3100239c
        0x310024ac:    3a00019e    ...:    BCC      __fpl_exception  ; 0x31002b2c
        0x310024b0:    eaffffff    ....    B        __fpl_inf_dfix  ; 0x310024b4
    __fpl_inf_dfix
        0x310024b4:    e59fc000    ....    LDR      r12,0x310024bc
        0x310024b8:    ea00019b    ....    B        __fpl_exception  ; 0x31002b2c
    $d
        0x310024bc:    040200c8    ....    DCD    67240136
    _dfixu
    $a
    x$fpl$dfixu
        0x310024c0:    e92d0003    ..-.    STMFD    r13!,{r0,r1}
        0x310024c4:    e1b02a41    A*..    MOVS     r2,r1,ASR #20
        0x310024c8:    e1a03581    .5..    MOV      r3,r1,LSL #11
        0x310024cc:    e1833aa0    .:..    ORR      r3,r3,r0,LSR #21
        0x310024d0:    13833480    .4..    ORRNE    r3,r3,#0x80000000
        0x310024d4:    4a000010    ...J    BMI      dfixu_negative  ; 0x3100251c
        0x310024d8:    e2422fe0    ./B.    SUB      r2,r2,#0x380
        0x310024dc:    e272209e    . r.    RSBS     r2,r2,#0x9e
        0x310024e0:    ba000013    ....    BLT      dfixu_ivo  ; 0x31002534
        0x310024e4:    e35200ff    ..R.    CMP      r2,#0xff
        0x310024e8:    c3a01000    ....    MOVGT    r1,#0
        0x310024ec:    d1a01233    3...    MOVLE    r1,r3,LSR r2
        0x310024f0:    e1a00001    ....    MOV      r0,r1
        0x310024f4:    e28dd008    ....    ADD      r13,r13,#8
        0x310024f8:    e1a0f00e    ....    MOV      pc,r14
    $d
        0x310024fc:    00000000    ....    DCD    0
        0x31002500:    bfe00000    ....    DCD    3219128320
        0x31002504:    ffffffff    ....    DCD    4294967295
        0x31002508:    bfefffff    ....    DCD    3220176895
        0x3100250c:    00000000    ....    DCD    0
        0x31002510:    80000000    ....    DCD    2147483648
        0x31002514:    ffffffff    ....    DCD    4294967295
        0x31002518:    bfefffff    ....    DCD    3220176895
    dfixu_negative
    $a
        0x3100251c:    e2812440    @$..    ADD      r2,r1,#0x40000000
        0x31002520:    e3720940    @.r.    CMN      r2,#0x100000
        0x31002524:    aa000002    ....    BGE      dfixu_ivo  ; 0x31002534
        0x31002528:    e3a00000    ....    MOV      r0,#0
        0x3100252c:    e28dd008    ....    ADD      r13,r13,#8
        0x31002530:    e1a0f00e    ....    MOV      pc,r14
    dfixu_ivo
        0x31002534:    e8bd0003    ....    LDMFD    r13!,{r0,r1}
        0x31002538:    e59fc020     ...    LDR      r12,0x31002560
        0x3100253c:    e3500001    ..P.    CMP      r0,#1
        0x31002540:    e0a13001    .0..    ADC      r3,r1,r1
        0x31002544:    e3730980    ..s.    CMN      r3,#0x200000
        0x31002548:    838ccb40    @...    ORRHI    r12,r12,#0x10000
        0x3100254c:    8affff92    ....    BHI      __fpl_dcheck_NaN1  ; 0x3100239c
        0x31002550:    3a000175    u..:    BCC      __fpl_exception  ; 0x31002b2c
        0x31002554:    eaffffff    ....    B        __fpl_inf_dfixu  ; 0x31002558
    __fpl_inf_dfixu
        0x31002558:    e59fc000    ....    LDR      r12,0x31002560
        0x3100255c:    ea000172    r...    B        __fpl_exception  ; 0x31002b2c
    $d
        0x31002560:    040200e8    ....    DCD    67240168
    _dfltu
    $a
    x$fpl$dflt
        0x31002564:    e3a03440    @4..    MOV      r3,#0x40000000
        0x31002568:    e1a01000    ....    MOV      r1,r0
        0x3100256c:    ea000003    ....    B        __dflt_normalise  ; 0x31002580
    _dflt
        0x31002570:    e2103480    .4..    ANDS     r3,r0,#0x80000000
        0x31002574:    12601000    ..`.    RSBNE    r1,r0,#0
        0x31002578:    01a01000    ....    MOVEQ    r1,r0
        0x3100257c:    e3833440    @4..    ORR      r3,r3,#0x40000000
    __dflt_normalise
        0x31002580:    e1b00821    !...    MOVS     r0,r1,LSR #16
        0x31002584:    12833740    @7..    ADDNE    r3,r3,#0x1000000
        0x31002588:    01b01801    ....    MOVEQS   r1,r1,LSL #16
        0x3100258c:    01a0f00e    ....    MOVEQ    pc,r14
        0x31002590:    e31104ff    ....    TST      r1,#0xff000000
        0x31002594:    12833880    .8..    ADDNE    r3,r3,#0x800000
        0x31002598:    01a01401    ....    MOVEQ    r1,r1,LSL #8
        0x3100259c:    e31104f0    ....    TST      r1,#0xf0000000
        0x310025a0:    12833840    @8..    ADDNE    r3,r3,#0x400000
        0x310025a4:    01a01201    ....    MOVEQ    r1,r1,LSL #4
        0x310025a8:    e31104c0    ....    TST      r1,#0xc0000000
        0x310025ac:    12833980    .9..    ADDNE    r3,r3,#0x200000
        0x310025b0:    01b01101    ....    MOVEQS   r1,r1,LSL #2
        0x310025b4:    42833940    @9.B    ADDMI    r3,r3,#0x100000
        0x310025b8:    51a01081    ...Q    MOVPL    r1,r1,LSL #1
        0x310025bc:    e1a00a81    ....    MOV      r0,r1,LSL #21
        0x310025c0:    e08315c1    ....    ADD      r1,r3,r1,ASR #11
        0x310025c4:    e1a0f00e    ....    MOV      pc,r14
    _dcmpge
    x$fpl$dgeqf
        0x310025c8:    e191c003    ....    ORRS     r12,r1,r3
        0x310025cc:    4a00000b    ...J    BMI      _dcmpge_negative  ; 0x31002600
        0x310025d0:    e37c0940    @.|.    CMN      r12,#0x100000
        0x310025d4:    4a000003    ...J    BMI      _dcmpge_check_NaNInf_pos  ; 0x310025e8
        0x310025d8:    e1510003    ..Q.    CMP      r1,r3
        0x310025dc:    11a0f00e    ....    MOVNE    pc,r14
        0x310025e0:    01500002    ..P.    CMPEQ    r0,r2
        0x310025e4:    e1a0f00e    ....    MOV      pc,r14
    _dcmpge_check_NaNInf_pos
        0x310025e8:    e3710940    @.q.    CMN      r1,#0x100000
        0x310025ec:    53730940    @.sS    CMNPL    r3,#0x100000
        0x310025f0:    4a000011    ...J    BMI      dcmpge_InfNaN  ; 0x3100263c
        0x310025f4:    e1510003    ..Q.    CMP      r1,r3
        0x310025f8:    01500002    ..P.    CMPEQ    r0,r2
        0x310025fc:    e1a0f00e    ....    MOV      pc,r14
    _dcmpge_negative
        0x31002600:    e37c0940    @.|.    CMN      r12,#0x100000
        0x31002604:    5a000005    ...Z    BPL      _dcmpge_check_NaNInf_neg  ; 0x31002620
        0x31002608:    e190c081    ....    ORRS     r12,r0,r1,LSL #1
        0x3100260c:    0192c083    ....    ORREQS   r12,r2,r3,LSL #1
        0x31002610:    11530001    ..S.    CMPNE    r3,r1
        0x31002614:    11a0f00e    ....    MOVNE    pc,r14
        0x31002618:    01520000    ..R.    CMPEQ    r2,r0
        0x3100261c:    e1a0f00e    ....    MOV      pc,r14
    _dcmpge_check_NaNInf_neg
        0x31002620:    e3a0c980    ....    MOV      r12,#0x200000
        0x31002624:    e17c0081    ..|.    CMN      r12,r1,LSL #1
        0x31002628:    317c0083    ..|1    CMNCC    r12,r3,LSL #1
        0x3100262c:    2a000002    ...*    BCS      dcmpge_InfNaN  ; 0x3100263c
        0x31002630:    e1530001    ..S.    CMP      r3,r1
        0x31002634:    01520000    ..R.    CMPEQ    r2,r0
        0x31002638:    e1a0f00e    ....    MOV      pc,r14
    dcmpge_InfNaN
        0x3100263c:    e59fc000    ....    LDR      r12,0x31002644
        0x31002640:    eaffff5b    [...    B        __fpl_dcmp_InfNaN  ; 0x310023b4
    $d
        0x31002644:    04130019    ....    DCD    68354073
    _dmul
    $a
    x$fpl$dmul
        0x31002648:    e92d4070    p@-.    STMFD    r13!,{r4-r6,r14}
        0x3100264c:    e59fc29c    ....    LDR      r12,0x310028f0
        0x31002650:    e1dce221    !...    BICS     r14,r12,r1,LSR #4
        0x31002654:    11dce223    #...    BICNES   r14,r12,r3,LSR #4
        0x31002658:    0a00008f    ....    BEQ      dmul_naninf  ; 0x3100289c
        0x3100265c:    e00ce221    !...    AND      r14,r12,r1,LSR #4
        0x31002660:    e0215003    .P!.    EOR      r5,r1,r3
        0x31002664:    e18eefa5    ....    ORR      r14,r14,r5,LSR #31
        0x31002668:    e01c5223    #R..    ANDS     r5,r12,r3,LSR #4
        0x3100266c:    1111020c    ....    TSTNE    r1,r12,LSL #4
        0x31002670:    0a000040    @...    BEQ      dmul_zerodenorm  ; 0x31002778
    dmul_normalised
        0x31002674:    e08ee005    ....    ADD      r14,r14,r5
        0x31002678:    e24ee7ff    ..N.    SUB      r14,r14,#0x3fc0000
        0x3100267c:    e1c1128c    ....    BIC      r1,r1,r12,LSL #5
        0x31002680:    e1c3328c    .2..    BIC      r3,r3,r12,LSL #5
        0x31002684:    e3811940    @...    ORR      r1,r1,#0x100000
        0x31002688:    e3833940    @9..    ORR      r3,r3,#0x100000
        0x3100268c:    e08c4291    .B..    UMULL    r4,r12,r1,r2
        0x31002690:    e0856390    .c..    UMULL    r6,r5,r0,r3
        0x31002694:    e0966004    .`..    ADDS     r6,r6,r4
        0x31002698:    e0b5500c    .P..    ADCS     r5,r5,r12
        0x3100269c:    e08c4391    .C..    UMULL    r4,r12,r1,r3
        0x310026a0:    e2ac3000    .0..    ADC      r3,r12,#0
        0x310026a4:    e08c1290    ....    UMULL    r1,r12,r0,r2
        0x310026a8:    e096600c    .`..    ADDS     r6,r6,r12
        0x310026ac:    e0b55004    .P..    ADCS     r5,r5,r4
        0x310026b0:    e2b33000    .0..    ADCS     r3,r3,#0
        0x310026b4:    e1110001    ....    TST      r1,r1
        0x310026b8:    13866001    .`..    ORRNE    r6,r6,#1
        0x310026bc:    e3e02003    . ..    MVN      r2,#3
        0x310026c0:    e3a0c014    ....    MOV      r12,#0x14
        0x310026c4:    e3530f80    ..S.    CMP      r3,#0x200
        0x310026c8:    e2acc000    ....    ADC      r12,r12,#0
        0x310026cc:    e0a2284e    N(..    ADC      r2,r2,r14,ASR #16
        0x310026d0:    e26c4020     @l.    RSB      r4,r12,#0x20
        0x310026d4:    e1a01413    ....    MOV      r1,r3,LSL r4
        0x310026d8:    e1a00415    ....    MOV      r0,r5,LSL r4
        0x310026dc:    e1811c35    5...    ORR      r1,r1,r5,LSR r12
        0x310026e0:    e1800c36    6...    ORR      r0,r0,r6,LSR r12
        0x310026e4:    e0811a02    ....    ADD      r1,r1,r2,LSL #20
        0x310026e8:    e0211f8e    ..!.    EOR      r1,r1,r14,LSL #31
        0x310026ec:    e1b04416    .D..    MOVS     r4,r6,LSL r4
        0x310026f0:    0a000009    ....    BEQ      dmul_exact  ; 0x3100271c
        0x310026f4:    e1b0c084    ....    MOVS     r12,r4,LSL #1
        0x310026f8:    33a044c0    .D.3    MOVCC    r4,#0xc0000000
        0x310026fc:    3a000006    ...:    BCC      dmul_exact  ; 0x3100271c
        0x31002700:    03833480    .4..    ORREQ    r3,r3,#0x80000000
        0x31002704:    e2b00000    ....    ADCS     r0,r0,#0
        0x31002708:    e2a11000    ....    ADC      r1,r1,#0
        0x3100270c:    e3a04440    @D..    MOV      r4,#0x40000000
        0x31002710:    e1100fa3    ....    TST      r0,r3,LSR #31
        0x31002714:    e1c00fa3    ....    BIC      r0,r0,r3,LSR #31
        0x31002718:    13a044c0    .D..    MOVNE    r4,#0xc0000000
    dmul_exact
    dmul_rounded
        0x3100271c:    e1310f8e    ..1.    TEQ      r1,r14,LSL #31
        0x31002720:    e59fc1cc    ....    LDR      r12,0x310028f4
        0x31002724:    4a00000b    ...J    BMI      dmul_outflow  ; 0x31002758
        0x31002728:    e111000c    ....    TST      r1,r12
        0x3100272c:    11dcc001    ....    BICNES   r12,r12,r1
        0x31002730:    0a000008    ....    BEQ      dmul_outflow  ; 0x31002758
        0x31002734:    e8bd8070    p...    LDMFD    r13!,{r4-r6,pc}
        0x31002738:    e1b04f8e    .O..    MOVS     r4,r14,LSL #31
        0x3100273c:    531c0880    ...S    TSTPL    r12,#0x800000
        0x31002740:    431c0840    @..C    TSTMI    r12,#0x400000
        0x31002744:    03a04440    @D..    MOVEQ    r4,#0x40000000
        0x31002748:    13a044c0    .D..    MOVNE    r4,#0xc0000000
        0x3100274c:    02900001    ....    ADDEQS   r0,r0,#1
        0x31002750:    e2a11000    ....    ADC      r1,r1,#0
        0x31002754:    eafffff0    ....    B        dmul_exact  ; 0x3100271c
    dmul_outflow
        0x31002758:    e35e0640    @.^.    CMP      r14,#0x4000000
        0x3100275c:    d2811460    `...    ADDLE    r1,r1,#0x60000000
        0x31002760:    a2411460    `.A.    SUBGE    r1,r1,#0x60000000
        0x31002764:    e384c013    ....    ORR      r12,r4,#0x13
        0x31002768:    a38cc540    @...    ORRGE    r12,r12,#0x10000000
        0x3100276c:    e8bd4070    p@..    LDMFD    r13!,{r4-r6,r14}
        0x31002770:    da000061    a...    BLE      __dunder  ; 0x310028fc
        0x31002774:    ea0000ec    ....    B        __fpl_exception  ; 0x31002b2c
    dmul_zerodenorm
        0x31002778:    e1904081    .@..    ORRS     r4,r0,r1,LSL #1
        0x3100277c:    11924083    .@..    ORRNES   r4,r2,r3,LSL #1
        0x31002780:    0a000004    ....    BEQ      dmul_zero  ; 0x31002798
        0x31002784:    e1150005    ....    TST      r5,r5
        0x31002788:    0a000024    $...    BEQ      dmul_renorm_op2  ; 0x31002820
    dmul_done_op2
        0x3100278c:    e3de4001    .@..    BICS     r4,r14,#1
        0x31002790:    0a000003    ....    BEQ      dmul_renorm_op1  ; 0x310027a4
        0x31002794:    eaffffb6    ....    B        dmul_normalised  ; 0x31002674
    dmul_zero
        0x31002798:    e3a00000    ....    MOV      r0,#0
        0x3100279c:    e1a01f8e    ....    MOV      r1,r14,LSL #31
        0x310027a0:    e8bd8070    p...    LDMFD    r13!,{r4-r6,pc}
    dmul_renorm_op1
        0x310027a4:    e28eeb40    @...    ADD      r14,r14,#0x10000
        0x310027a8:    e3c11480    ....    BIC      r1,r1,#0x80000000
        0x310027ac:    e1916620     f..    ORRS     r6,r1,r0,LSR #12
        0x310027b0:    01a00a00    ....    MOVEQ    r0,r0,LSL #20
        0x310027b4:    024ee950    P.N.    SUBEQ    r14,r14,#0x140000
        0x310027b8:    e1110001    ....    TST      r1,r1
        0x310027bc:    01a01620     ...    MOVEQ    r1,r0,LSR #12
        0x310027c0:    01a00a00    ....    MOVEQ    r0,r0,LSL #20
        0x310027c4:    024ee950    P.N.    SUBEQ    r14,r14,#0x140000
        0x310027c8:    e3a04000    .@..    MOV      r4,#0
        0x310027cc:    e1b062a1    .b..    MOVS     r6,r1,LSR #5
        0x310027d0:    01a01801    ....    MOVEQ    r1,r1,LSL #16
        0x310027d4:    02844010    .@..    ADDEQ    r4,r4,#0x10
        0x310027d8:    e1b066a1    .f..    MOVS     r6,r1,LSR #13
        0x310027dc:    01a01401    ....    MOVEQ    r1,r1,LSL #8
        0x310027e0:    02844008    .@..    ADDEQ    r4,r4,#8
        0x310027e4:    e1b068a1    .h..    MOVS     r6,r1,LSR #17
        0x310027e8:    01a01201    ....    MOVEQ    r1,r1,LSL #4
        0x310027ec:    02844004    .@..    ADDEQ    r4,r4,#4
        0x310027f0:    e1b069a1    .i..    MOVS     r6,r1,LSR #19
        0x310027f4:    01a01101    ....    MOVEQ    r1,r1,LSL #2
        0x310027f8:    02844002    .@..    ADDEQ    r4,r4,#2
        0x310027fc:    e1b06a21    !j..    MOVS     r6,r1,LSR #20
        0x31002800:    01a01081    ....    MOVEQ    r1,r1,LSL #1
        0x31002804:    02844001    .@..    ADDEQ    r4,r4,#1
        0x31002808:    e04ee804    ..N.    SUB      r14,r14,r4,LSL #16
        0x3100280c:    e1a06410    .d..    MOV      r6,r0,LSL r4
        0x31002810:    e2644020     @d.    RSB      r4,r4,#0x20
        0x31002814:    e1811430    0...    ORR      r1,r1,r0,LSR r4
        0x31002818:    e1a00006    ....    MOV      r0,r6
        0x3100281c:    eaffff94    ....    B        dmul_normalised  ; 0x31002674
    dmul_renorm_op2
        0x31002820:    e2855b40    @[..    ADD      r5,r5,#0x10000
        0x31002824:    e3c33480    .4..    BIC      r3,r3,#0x80000000
        0x31002828:    e1936622    "f..    ORRS     r6,r3,r2,LSR #12
        0x3100282c:    01a02a02    .*..    MOVEQ    r2,r2,LSL #20
        0x31002830:    02455950    PYE.    SUBEQ    r5,r5,#0x140000
        0x31002834:    e1130003    ....    TST      r3,r3
        0x31002838:    01a03622    "6..    MOVEQ    r3,r2,LSR #12
        0x3100283c:    01a02a02    .*..    MOVEQ    r2,r2,LSL #20
        0x31002840:    02455950    PYE.    SUBEQ    r5,r5,#0x140000
        0x31002844:    e3a04000    .@..    MOV      r4,#0
        0x31002848:    e1b062a3    .b..    MOVS     r6,r3,LSR #5
        0x3100284c:    01a03803    .8..    MOVEQ    r3,r3,LSL #16
        0x31002850:    02844010    .@..    ADDEQ    r4,r4,#0x10
        0x31002854:    e1b066a3    .f..    MOVS     r6,r3,LSR #13
        0x31002858:    01a03403    .4..    MOVEQ    r3,r3,LSL #8
        0x3100285c:    02844008    .@..    ADDEQ    r4,r4,#8
        0x31002860:    e1b068a3    .h..    MOVS     r6,r3,LSR #17
        0x31002864:    01a03203    .2..    MOVEQ    r3,r3,LSL #4
        0x31002868:    02844004    .@..    ADDEQ    r4,r4,#4
        0x3100286c:    e1b069a3    .i..    MOVS     r6,r3,LSR #19
        0x31002870:    01a03103    .1..    MOVEQ    r3,r3,LSL #2
        0x31002874:    02844002    .@..    ADDEQ    r4,r4,#2
        0x31002878:    e1b06a23    #j..    MOVS     r6,r3,LSR #20
        0x3100287c:    01a03083    .0..    MOVEQ    r3,r3,LSL #1
        0x31002880:    02844001    .@..    ADDEQ    r4,r4,#1
        0x31002884:    e0455804    .XE.    SUB      r5,r5,r4,LSL #16
        0x31002888:    e1a06412    .d..    MOV      r6,r2,LSL r4
        0x3100288c:    e2644020     @d.    RSB      r4,r4,#0x20
        0x31002890:    e1833432    24..    ORR      r3,r3,r2,LSR r4
        0x31002894:    e1a02006    . ..    MOV      r2,r6
        0x31002898:    eaffffbb    ....    B        dmul_done_op2  ; 0x3100278c
    dmul_naninf
        0x3100289c:    e1a05081    .P..    MOV      r5,r1,LSL #1
        0x310028a0:    e1a06083    .`..    MOV      r6,r3,LSL #1
        0x310028a4:    e155028c    ..U.    CMP      r5,r12,LSL #5
        0x310028a8:    03500000    ..P.    CMPEQ    r0,#0
        0x310028ac:    9156028c    ..V.    CMPLS    r6,r12,LSL #5
        0x310028b0:    03520000    ..R.    CMPEQ    r2,#0
        0x310028b4:    e8bd4070    p@..    LDMFD    r13!,{r4-r6,r14}
        0x310028b8:    e59fc038    8...    LDR      r12,0x310028f8
        0x310028bc:    8afffea6    ....    BHI      __fpl_dcheck_NaN2  ; 0x3100235c
        0x310028c0:    eaffffff    ....    B        __fpl_inf_dmul  ; 0x310028c4
    __fpl_inf_dmul
        0x310028c4:    e190c081    ....    ORRS     r12,r0,r1,LSL #1
        0x310028c8:    1192c083    ....    ORRNES   r12,r2,r3,LSL #1
        0x310028cc:    0a000005    ....    BEQ      dmul_ivo  ; 0x310028e8
        0x310028d0:    e0211003    ..!.    EOR      r1,r1,r3
        0x310028d4:    e3a00000    ....    MOV      r0,#0
        0x310028d8:    e2011480    ....    AND      r1,r1,#0x80000000
        0x310028dc:    e381147f    ....    ORR      r1,r1,#0x7f000000
        0x310028e0:    e38118f0    ....    ORR      r1,r1,#0xf00000
        0x310028e4:    e1a0f00e    ....    MOV      pc,r14
    dmul_ivo
        0x310028e8:    e59fc008    ....    LDR      r12,0x310028f8
        0x310028ec:    ea00008e    ....    B        __fpl_exception  ; 0x31002b2c
    $d
        0x310028f0:    07ff0000    ....    DCD    134152192
        0x310028f4:    7ff00000    ....    DCD    2146435072
        0x310028f8:    04000013    ....    DCD    67108883
    __dunder
    $a
    x$fpl$dunder
        0x310028fc:    e92d0003    ..-.    STMFD    r13!,{r0,r1}
        0x31002900:    e92d500c    .P-.    STMFD    r13!,{r2,r3,r12,r14}
        0x31002904:    ebfffcca    ....    BL       __rt_fp_status_addr  ; 0x31001c34
        0x31002908:    e8bd500c    .P..    LDMFD    r13!,{r2,r3,r12,r14}
        0x3100290c:    e1a03000    .0..    MOV      r3,r0
        0x31002910:    e8bd0003    ....    LDMFD    r13!,{r0,r1}
        0x31002914:    e5933000    .0..    LDR      r3,[r3,#0]
        0x31002918:    e3130740    @...    TST      r3,#0x1000000
        0x3100291c:    12011480    ....    ANDNE    r1,r1,#0x80000000
        0x31002920:    13a00000    ....    MOVNE    r0,#0
        0x31002924:    11a0f00e    ....    MOVNE    pc,r14
        0x31002928:    e3130e80    ....    TST      r3,#0x800
        0x3100292c:    1a00007c    |...    BNE      dunder_trap  ; 0x31002b24
        0x31002930:    e1110001    ....    TST      r1,r1
        0x31002934:    438ccb40    @..C    ORRMI    r12,r12,#0x10000
        0x31002938:    e3a03e60    `>..    MOV      r3,#0x600
        0x3100293c:    e1a02a21    !*..    MOV      r2,r1,LSR #20
        0x31002940:    e2833001    .0..    ADD      r3,r3,#1
        0x31002944:    e1c11a02    ....    BIC      r1,r1,r2,LSL #20
        0x31002948:    e3c22e80    ....    BIC      r2,r2,#0x800
        0x3100294c:    e0432002    . C.    SUB      r2,r3,r2
        0x31002950:    e3811940    @...    ORR      r1,r1,#0x100000
        0x31002954:    e3520035    5.R.    CMP      r2,#0x35
        0x31002958:    8a000022    "...    BHI      dunder_stickyonly  ; 0x310029e8
        0x3100295c:    0a00001b    ....    BEQ      dunder_roundbit  ; 0x310029d0
        0x31002960:    e3520015    ..R.    CMP      r2,#0x15
        0x31002964:    3a000010    ...:    BCC      dunder_hiword  ; 0x310029ac
        0x31002968:    e2522020      R.    SUBS     r2,r2,#0x20
        0x3100296c:    9a000006    ....    BLS      dunder_hiloword  ; 0x3100298c
        0x31002970:    e2623020     0b.    RSB      r3,r2,#0x20
        0x31002974:    e3500000    ..P.    CMP      r0,#0
        0x31002978:    e1a00231    1...    MOV      r0,r1,LSR r2
        0x3100297c:    e1a02311    .#..    MOV      r2,r1,LSL r3
        0x31002980:    13822001    . ..    ORRNE    r2,r2,#1
        0x31002984:    e3a01000    ....    MOV      r1,#0
        0x31002988:    ea000019    ....    B        dunder_round  ; 0x310029f4
    dunder_hiloword
        0x3100298c:    e2623000    .0b.    RSB      r3,r2,#0
        0x31002990:    e2822020      ..    ADD      r2,r2,#0x20
        0x31002994:    e1a01311    ....    MOV      r1,r1,LSL r3
        0x31002998:    e1811230    0...    ORR      r1,r1,r0,LSR r2
        0x3100299c:    e1a02310    .#..    MOV      r2,r0,LSL r3
        0x310029a0:    e1a00001    ....    MOV      r0,r1
        0x310029a4:    e3a01000    ....    MOV      r1,#0
        0x310029a8:    ea000011    ....    B        dunder_round  ; 0x310029f4
    dunder_hiword
        0x310029ac:    e92d0010    ..-.    STMFD    r13!,{r4}
        0x310029b0:    e2623020     0b.    RSB      r3,r2,#0x20
        0x310029b4:    e1a04310    .C..    MOV      r4,r0,LSL r3
        0x310029b8:    e1a03311    .3..    MOV      r3,r1,LSL r3
        0x310029bc:    e1830230    0...    ORR      r0,r3,r0,LSR r2
        0x310029c0:    e1a01231    1...    MOV      r1,r1,LSR r2
        0x310029c4:    e1a02004    . ..    MOV      r2,r4
        0x310029c8:    e8bd0010    ....    LDMFD    r13!,{r4}
        0x310029cc:    ea000008    ....    B        dunder_round  ; 0x310029f4
    dunder_roundbit
        0x310029d0:    e1902601    .&..    ORRS     r2,r0,r1,LSL #12
        0x310029d4:    e3a00000    ....    MOV      r0,#0
        0x310029d8:    e3a01000    ....    MOV      r1,#0
        0x310029dc:    e3a02480    .$..    MOV      r2,#0x80000000
        0x310029e0:    12822001    . ..    ADDNE    r2,r2,#1
        0x310029e4:    ea000002    ....    B        dunder_round  ; 0x310029f4
    dunder_stickyonly
        0x310029e8:    e3a02001    . ..    MOV      r2,#1
        0x310029ec:    e3a01000    ....    MOV      r1,#0
        0x310029f0:    e3a00000    ....    MOV      r0,#0
    dunder_round
        0x310029f4:    e31c0b40    @...    TST      r12,#0x10000
        0x310029f8:    e3cccb40    @...    BIC      r12,r12,#0x10000
        0x310029fc:    13811480    ....    ORRNE    r1,r1,#0x80000000
        0x31002a00:    e1120002    ....    TST      r2,r2
        0x31002a04:    01a0f00e    ....    MOVEQ    pc,r14
        0x31002a08:    e1b02082    . ..    MOVS     r2,r2,LSL #1
        0x31002a0c:    3a000002    ...:    BCC      dunder_rerounded  ; 0x31002a1c
        0x31002a10:    0a00000b    ....    BEQ      dunder_roundeven  ; 0x31002a44
    dunder_roundup
        0x31002a14:    e2900001    ....    ADDS     r0,r0,#1
        0x31002a18:    e2a11000    ....    ADC      r1,r1,#0
    dunder_rerounded
        0x31002a1c:    e92d0003    ..-.    STMFD    r13!,{r0,r1}
        0x31002a20:    e92d500c    .P-.    STMFD    r13!,{r2,r3,r12,r14}
        0x31002a24:    ebfffc82    ....    BL       __rt_fp_status_addr  ; 0x31001c34
        0x31002a28:    e8bd500c    .P..    LDMFD    r13!,{r2,r3,r12,r14}
        0x31002a2c:    e1a02000    . ..    MOV      r2,r0
        0x31002a30:    e8bd0003    ....    LDMFD    r13!,{r0,r1}
        0x31002a34:    e5923000    .0..    LDR      r3,[r2,#0]
        0x31002a38:    e3833008    .0..    ORR      r3,r3,#8
        0x31002a3c:    e5823000    .0..    STR      r3,[r2,#0]
        0x31002a40:    e1a0f00e    ....    MOV      pc,r14
    dunder_roundeven
        0x31002a44:    e1b02f4c    L/..    MOVS     r2,r12,ASR #30
        0x31002a48:    4afffff1    ...J    BMI      dunder_roundup  ; 0x31002a14
        0x31002a4c:    1afffff2    ....    BNE      dunder_rerounded  ; 0x31002a1c
        0x31002a50:    e2900001    ....    ADDS     r0,r0,#1
        0x31002a54:    e2a11000    ....    ADC      r1,r1,#0
        0x31002a58:    e3c00001    ....    BIC      r0,r0,#1
        0x31002a5c:    eaffffee    ....    B        dunder_rerounded  ; 0x31002a1c
    __dunder_d
        0x31002a60:    e92d0003    ..-.    STMFD    r13!,{r0,r1}
        0x31002a64:    e92d500c    .P-.    STMFD    r13!,{r2,r3,r12,r14}
        0x31002a68:    ebfffc71    q...    BL       __rt_fp_status_addr  ; 0x31001c34
        0x31002a6c:    e8bd500c    .P..    LDMFD    r13!,{r2,r3,r12,r14}
        0x31002a70:    e1a03000    .0..    MOV      r3,r0
        0x31002a74:    e8bd0003    ....    LDMFD    r13!,{r0,r1}
        0x31002a78:    e5933000    .0..    LDR      r3,[r3,#0]
        0x31002a7c:    e3130740    @...    TST      r3,#0x1000000
        0x31002a80:    12011480    ....    ANDNE    r1,r1,#0x80000000
        0x31002a84:    13a00000    ....    MOVNE    r0,#0
        0x31002a88:    11a0f00e    ....    MOVNE    pc,r14
        0x31002a8c:    e3130e80    ....    TST      r3,#0x800
        0x31002a90:    01a0f00e    ....    MOVEQ    pc,r14
        0x31002a94:    e92d4000    .@-.    STMFD    r13!,{r14}
        0x31002a98:    e3a0e660    `...    MOV      r14,#0x6000000
        0x31002a9c:    e18eefa1    ....    ORR      r14,r14,r1,LSR #31
        0x31002aa0:    e3c11480    ....    BIC      r1,r1,#0x80000000
        0x31002aa4:    e1913620     6..    ORRS     r3,r1,r0,LSR #12
        0x31002aa8:    01a00a00    ....    MOVEQ    r0,r0,LSL #20
        0x31002aac:    024ee950    P.N.    SUBEQ    r14,r14,#0x140000
        0x31002ab0:    e1110001    ....    TST      r1,r1
        0x31002ab4:    01a01620     ...    MOVEQ    r1,r0,LSR #12
        0x31002ab8:    01a00a00    ....    MOVEQ    r0,r0,LSL #20
        0x31002abc:    024ee950    P.N.    SUBEQ    r14,r14,#0x140000
        0x31002ac0:    e3a02000    . ..    MOV      r2,#0
        0x31002ac4:    e1b032a1    .2..    MOVS     r3,r1,LSR #5
        0x31002ac8:    01a01801    ....    MOVEQ    r1,r1,LSL #16
        0x31002acc:    02822010    . ..    ADDEQ    r2,r2,#0x10
        0x31002ad0:    e1b036a1    .6..    MOVS     r3,r1,LSR #13
        0x31002ad4:    01a01401    ....    MOVEQ    r1,r1,LSL #8
        0x31002ad8:    02822008    . ..    ADDEQ    r2,r2,#8
        0x31002adc:    e1b038a1    .8..    MOVS     r3,r1,LSR #17
        0x31002ae0:    01a01201    ....    MOVEQ    r1,r1,LSL #4
        0x31002ae4:    02822004    . ..    ADDEQ    r2,r2,#4
        0x31002ae8:    e1b039a1    .9..    MOVS     r3,r1,LSR #19
        0x31002aec:    01a01101    ....    MOVEQ    r1,r1,LSL #2
        0x31002af0:    02822002    . ..    ADDEQ    r2,r2,#2
        0x31002af4:    e1b03a21    !:..    MOVS     r3,r1,LSR #20
        0x31002af8:    01a01081    ....    MOVEQ    r1,r1,LSL #1
        0x31002afc:    02822001    . ..    ADDEQ    r2,r2,#1
        0x31002b00:    e04ee802    ..N.    SUB      r14,r14,r2,LSL #16
        0x31002b04:    e1a03210    .2..    MOV      r3,r0,LSL r2
        0x31002b08:    e2622020      b.    RSB      r2,r2,#0x20
        0x31002b0c:    e1811230    0...    ORR      r1,r1,r0,LSR r2
        0x31002b10:    e1a00003    ....    MOV      r0,r3
        0x31002b14:    e0211f8e    ..!.    EOR      r1,r1,r14,LSL #31
        0x31002b18:    e3cee001    ....    BIC      r14,r14,#1
        0x31002b1c:    e081120e    ....    ADD      r1,r1,r14,LSL #4
        0x31002b20:    e8bd4000    .@..    LDMFD    r13!,{r14}
    dunder_trap
        0x31002b24:    e38cc580    ....    ORR      r12,r12,#0x20000000
        0x31002b28:    ea00007e    ~...    B        _fp_trapveneer  ; 0x31002d28
    __fpl_exception
    x$fpl$exception
        0x31002b2c:    e31c0010    ....    TST      r12,#0x10
        0x31002b30:    01a02001    . ..    MOVEQ    r2,r1
        0x31002b34:    e92d000f    ..-.    STMFD    r13!,{r0-r3}
        0x31002b38:    e92d0003    ..-.    STMFD    r13!,{r0,r1}
        0x31002b3c:    e92d500c    .P-.    STMFD    r13!,{r2,r3,r12,r14}
        0x31002b40:    ebfffc3b    ;...    BL       __rt_fp_status_addr  ; 0x31001c34
        0x31002b44:    e8bd500c    .P..    LDMFD    r13!,{r2,r3,r12,r14}
        0x31002b48:    e1a02000    . ..    MOV      r2,r0
        0x31002b4c:    e8bd0003    ....    LDMFD    r13!,{r0,r1}
        0x31002b50:    e5921000    ....    LDR      r1,[r2,#0]
        0x31002b54:    e1cc3901    .9..    BIC      r3,r12,r1,LSL #18
        0x31002b58:    e21335c0    .5..    ANDS     r3,r3,#0x30000000
        0x31002b5c:    138cc440    @...    ORRNE    r12,r12,#0x40000000
        0x31002b60:    e1a0308c    .0..    MOV      r3,r12,LSL #1
        0x31002b64:    e1a03da3    .=..    MOV      r3,r3,LSR #27
        0x31002b68:    e1811003    ....    ORR      r1,r1,r3
        0x31002b6c:    e2013770    p7..    AND      r3,r1,#0x1c00000
        0x31002b70:    e18cc003    ....    ORR      r12,r12,r3
        0x31002b74:    e5821000    ....    STR      r1,[r2,#0]
        0x31002b78:    e20c300f    .0..    AND      r3,r12,#0xf
        0x31002b7c:    e3330008    ..3.    TEQ      r3,#8
        0x31002b80:    120c3070    p0..    ANDNE    r3,r12,#0x70
        0x31002b84:    118cc183    ....    ORRNE    r12,r12,r3,LSL #3
        0x31002b88:    03a03b80    .;..    MOVEQ    r3,#0x20000
        0x31002b8c:    01d3300c    .0..    BICEQS   r3,r3,r12
        0x31002b90:    038cc8c0    ....    ORREQ    r12,r12,#0xc00000
        0x31002b94:    e31c0580    ....    TST      r12,#0x20000000
        0x31002b98:    1a00000d    ....    BNE      underflow  ; 0x31002bd4
        0x31002b9c:    e31c0540    @...    TST      r12,#0x10000000
        0x31002ba0:    1a000007    ....    BNE      overflow  ; 0x31002bc4
        0x31002ba4:    e31c0440    @...    TST      r12,#0x40000000
        0x31002ba8:    1a000014    ....    BNE      inexact  ; 0x31002c00
        0x31002bac:    e31c0680    ....    TST      r12,#0x8000000
        0x31002bb0:    1a00000b    ....    BNE      divide_by_zero  ; 0x31002be4
        0x31002bb4:    e3110f40    @...    TST      r1,#0x100
        0x31002bb8:    e8bd000f    ....    LDMFD    r13!,{r0-r3}
        0x31002bbc:    0a000020     ...    BEQ      return_NaN  ; 0x31002c44
        0x31002bc0:    ea000058    X...    B        _fp_trapveneer  ; 0x31002d28
    overflow
        0x31002bc4:    e3110e40    @...    TST      r1,#0x400
        0x31002bc8:    e8bd000f    ....    LDMFD    r13!,{r0-r3}
        0x31002bcc:    0a000011    ....    BEQ      ovf_return  ; 0x31002c18
        0x31002bd0:    ea000054    T...    B        _fp_trapveneer  ; 0x31002d28
    underflow
        0x31002bd4:    e3110e80    ....    TST      r1,#0x800
        0x31002bd8:    e8bd000f    ....    LDMFD    r13!,{r0-r3}
        0x31002bdc:    0a00000b    ....    BEQ      return_result  ; 0x31002c10
        0x31002be0:    ea000050    P...    B        _fp_trapveneer  ; 0x31002d28
    divide_by_zero
        0x31002be4:    e3110f80    ....    TST      r1,#0x200
        0x31002be8:    e8bd000f    ....    LDMFD    r13!,{r0-r3}
        0x31002bec:    1a00004d    M...    BNE      _fp_trapveneer  ; 0x31002d28
        0x31002bf0:    e31c0010    ....    TST      r12,#0x10
        0x31002bf4:    10212003    . !.    EORNE    r2,r1,r3
        0x31002bf8:    00202002    .  .    EOREQ    r2,r0,r2
        0x31002bfc:    ea000008    ....    B        return_Inf  ; 0x31002c24
    inexact
        0x31002c00:    e3110d40    @...    TST      r1,#0x1000
        0x31002c04:    e8bd000f    ....    LDMFD    r13!,{r0-r3}
        0x31002c08:    0a000000    ....    BEQ      return_result  ; 0x31002c10
        0x31002c0c:    ea000045    E...    B        _fp_trapveneer  ; 0x31002d28
    return_result
        0x31002c10:    e31c0010    ....    TST      r12,#0x10
        0x31002c14:    e1a0f00e    ....    MOV      pc,r14
    ovf_return
        0x31002c18:    e31c0080    ....    TST      r12,#0x80
        0x31002c1c:    12012480    .$..    ANDNE    r2,r1,#0x80000000
        0x31002c20:    02002480    .$..    ANDEQ    r2,r0,#0x80000000
    return_Inf
        0x31002c24:    e2022480    .$..    AND      r2,r2,#0x80000000
        0x31002c28:    e31c0010    ....    TST      r12,#0x10
        0x31002c2c:    128f0038    8...    ADDNE    r0,pc,#0x38 ; #0x31002c6c
        0x31002c30:    18900003    ....    LDMNEIA  r0,{r0,r1}
        0x31002c34:    11811002    ....    ORRNE    r1,r1,r2
        0x31002c38:    059f003c    <...    LDREQ    r0,0x31002c7c
        0x31002c3c:    01800002    ....    ORREQ    r0,r0,r2
        0x31002c40:    e1a0f00e    ....    MOV      pc,r14
    return_NaN
        0x31002c44:    e31c0080    ....    TST      r12,#0x80
        0x31002c48:    12012480    .$..    ANDNE    r2,r1,#0x80000000
        0x31002c4c:    02002480    .$..    ANDEQ    r2,r0,#0x80000000
        0x31002c50:    e31c0010    ....    TST      r12,#0x10
        0x31002c54:    128f0028    (...    ADDNE    r0,pc,#0x28 ; #0x31002c84
        0x31002c58:    18900003    ....    LDMNEIA  r0,{r0,r1}
        0x31002c5c:    11811002    ....    ORRNE    r1,r1,r2
        0x31002c60:    059f0024    $...    LDREQ    r0,0x31002c8c
        0x31002c64:    01800002    ....    ORREQ    r0,r0,r2
        0x31002c68:    ea000008    ....    B        __fpl_return_NaN  ; 0x31002c90
    prototype_double_Inf
    $d
        0x31002c6c:    00000000    ....    DCD    0
        0x31002c70:    7ff00000    ....    DCD    2146435072
        0x31002c74:    ffffffff    ....    DCD    4294967295
        0x31002c78:    7fefffff    ....    DCD    2146435071
    prototype_single_Inf
        0x31002c7c:    7f800000    ....    DCD    2139095040
        0x31002c80:    7f7fffff    ....    DCD    2139095039
    prototype_double_NaN
        0x31002c84:    00000000    ....    DCD    0
        0x31002c88:    7ff80000    ....    DCD    2146959360
    prototype_single_NaN
        0x31002c8c:    7fc00000    ....    DCD    2143289344
    __fpl_return_NaN
    $a
    x$fpl$retnan
        0x31002c90:    e20c300f    .0..    AND      r3,r12,#0xf
        0x31002c94:    e3530009    ..S.    CMP      r3,#9
        0x31002c98:    03a00008    ....    MOVEQ    r0,#8
        0x31002c9c:    0a00002a    *...    BEQ      __fpl_cmpreturn  ; 0x31002d4c
        0x31002ca0:    e3530008    ..S.    CMP      r3,#8
        0x31002ca4:    11a0f00e    ....    MOVNE    pc,r14
        0x31002ca8:    031c0040    @...    TSTEQ    r12,#0x40
        0x31002cac:    0a000016    ....    BEQ      return_fpnan  ; 0x31002d0c
        0x31002cb0:    e31c0b40    @...    TST      r12,#0x10000
        0x31002cb4:    1a00000b    ....    BNE      return_zero  ; 0x31002ce8
        0x31002cb8:    e31c0020     ...    TST      r12,#0x20
        0x31002cbc:    1a00000c    ....    BNE      return_umaxint  ; 0x31002cf4
        0x31002cc0:    e31c0010    ....    TST      r12,#0x10
        0x31002cc4:    01a02000    . ..    MOVEQ    r2,r0
        0x31002cc8:    11a02001    . ..    MOVNE    r2,r1
        0x31002ccc:    03e00480    ....    MVNEQ    r0,#0x80000000
        0x31002cd0:    13e01480    ....    MVNNE    r1,#0x80000000
        0x31002cd4:    13e00000    ....    MVNNE    r0,#0
        0x31002cd8:    e3120480    ....    TST      r2,#0x80000000
        0x31002cdc:    11e00000    ....    MVNNE    r0,r0
        0x31002ce0:    11e01001    ....    MVNNE    r1,r1
        0x31002ce4:    e1a0f00e    ....    MOV      pc,r14
    return_zero
        0x31002ce8:    e3a00000    ....    MOV      r0,#0
        0x31002cec:    e3a01000    ....    MOV      r1,#0
        0x31002cf0:    e1a0f00e    ....    MOV      pc,r14
    return_umaxint
        0x31002cf4:    e3e00000    ....    MVN      r0,#0
        0x31002cf8:    e3e01000    ....    MVN      r1,#0
        0x31002cfc:    e3120480    ....    TST      r2,#0x80000000
        0x31002d00:    11e00000    ....    MVNNE    r0,r0
        0x31002d04:    11e01001    ....    MVNNE    r1,r1
        0x31002d08:    e1a0f00e    ....    MOV      pc,r14
    return_fpnan
        0x31002d0c:    e31c0010    ....    TST      r12,#0x10
        0x31002d10:    059f0008    ....    LDREQ    r0,0x31002d20
        0x31002d14:    159f1008    ....    LDRNE    r1,0x31002d24
        0x31002d18:    13a00000    ....    MOVNE    r0,#0
        0x31002d1c:    e1a0f00e    ....    MOV      pc,r14
    $d
        0x31002d20:    7fc00000    ....    DCD    2143289344
        0x31002d24:    7ff80000    ....    DCD    2146959360
    _fp_trapveneer
    $a
    x$fpl$trapveneer
        0x31002d28:    e92d5000    .P-.    STMFD    r13!,{r12,r14}
        0x31002d2c:    e92d5000    .P-.    STMFD    r13!,{r12,r14}
        0x31002d30:    ebfffbe5    ....    BL       _fp_trap  ; 0x31001ccc
        0x31002d34:    e8bd5000    .P..    LDMFD    r13!,{r12,r14}
        0x31002d38:    e8bd5000    .P..    LDMFD    r13!,{r12,r14}
        0x31002d3c:    e20c300f    .0..    AND      r3,r12,#0xf
        0x31002d40:    e3330009    ..3.    TEQ      r3,#9
        0x31002d44:    11a0f00e    ....    MOVNE    pc,r14
        0x31002d48:    eaffffff    ....    B        __fpl_cmpreturn  ; 0x31002d4c
    __fpl_cmpreturn
        0x31002d4c:    e31c0940    @...    TST      r12,#0x100000
        0x31002d50:    0a00001a    ....    BEQ      cmp_boolean  ; 0x31002dc0
        0x31002d54:    e31c0af0    ....    TST      r12,#0xf0000
        0x31002d58:    0a000006    ....    BEQ      cmp_generic  ; 0x31002d78
        0x31002d5c:    e3100008    ....    TST      r0,#8
        0x31002d60:    1a000001    ....    BNE      cmp_specflags_unordered  ; 0x31002d6c
        0x31002d64:    e2700002    ..p.    RSBS     r0,r0,#2
        0x31002d68:    e1a0f00e    ....    MOV      pc,r14
    cmp_specflags_unordered
        0x31002d6c:    e20c1af0    ....    AND      r1,r12,#0xf0000
        0x31002d70:    e3510a40    @.Q.    CMP      r1,#0x40000
        0x31002d74:    e1a0f00e    ....    MOV      pc,r14
    cmp_generic
        0x31002d78:    e3a014e0    ....    MOV      r1,#0xe0000000
        0x31002d7c:    e0111e80    ....    ANDS     r1,r1,r0,LSL #29
        0x31002d80:    238115c0    ...#    ORRCS    r1,r1,#0x30000000
        0x31002d84:    e92d0003    ..-.    STMFD    r13!,{r0,r1}
        0x31002d88:    e92d500c    .P-.    STMFD    r13!,{r2,r3,r12,r14}
        0x31002d8c:    ebfffba8    ....    BL       __rt_fp_status_addr  ; 0x31001c34
        0x31002d90:    e8bd500c    .P..    LDMFD    r13!,{r2,r3,r12,r14}
        0x31002d94:    e1a0c000    ....    MOV      r12,r0
        0x31002d98:    e8bd0003    ....    LDMFD    r13!,{r0,r1}
        0x31002d9c:    e59c3000    .0..    LDR      r3,[r12,#0]
        0x31002da0:    e3c334f0    .4..    BIC      r3,r3,#0xf0000000
        0x31002da4:    e1833001    .0..    ORR      r3,r3,r1
        0x31002da8:    e58c3000    .0..    STR      r3,[r12,#0]
        0x31002dac:    e10f2000    . ..    MRS      r2,CPSR
        0x31002db0:    e3c224f0    .$..    BIC      r2,r2,#0xf0000000
        0x31002db4:    e1822001    . ..    ORR      r2,r2,r1
        0x31002db8:    e128f002    ..(.    MSR      CPSR_f,r2
        0x31002dbc:    e1a0f00e    ....    MOV      pc,r14
    cmp_boolean
        0x31002dc0:    e01c0800    ....    ANDS     r0,r12,r0,LSL #16
        0x31002dc4:    13a00001    ....    MOVNE    r0,#1
        0x31002dc8:    e1a0f00e    ....    MOV      pc,r14
    .constdata$1
    messages@__default_signal_handler_0
    $d
    .constdata
        0x31002dcc:    6f6e6241    Abno    DCD    1869505089
        0x31002dd0:    6c616d72    rmal    DCD    1818324338
        0x31002dd4:    72657420     ter    DCD    1919251488
        0x31002dd8:    616e696d    mina    DCD    1634625901
        0x31002ddc:    6e6f6974    tion    DCD    1852795252
        0x31002de0:    41000000    ...A    DCD    1090519040
        0x31002de4:    68746972    rith    DCD    1752459634
        0x31002de8:    6974656d    meti    DCD    1769235821
        0x31002dec:    78652063    c ex    DCD    2019893347
        0x31002df0:    74706563    cept    DCD    1953523043
        0x31002df4:    3a6e6f69    ion:    DCD    980316009
        0x31002df8:    6c490020     .Il    DCD    1816723488
        0x31002dfc:    6167656c    lega    DCD    1634166124
        0x31002e00:    6e69206c    l in    DCD    1852383340
        0x31002e04:    75727473    stru    DCD    1970435187
        0x31002e08:    6f697463    ctio    DCD    1869182051
        0x31002e0c:    0000006e    n...    DCD    110
        0x31002e10:    746e4900    .Int    DCD    1953384704
        0x31002e14:    75727265    erru    DCD    1970434661
        0x31002e18:    72207470    pt r    DCD    1914729584
        0x31002e1c:    69656365    ecei    DCD    1768252261
        0x31002e20:    00646576    ved.    DCD    6579574
        0x31002e24:    00000000    ....    DCD    0
        0x31002e28:    656c6c49    Ille    DCD    1701604425
        0x31002e2c:    206c6167    gal     DCD    543973735
        0x31002e30:    72646461    addr    DCD    1919181921
        0x31002e34:    00737365    ess.    DCD    7566181
        0x31002e38:    00000000    ....    DCD    0
        0x31002e3c:    54000000    ...T    DCD    1409286144
        0x31002e40:    696d7265    ermi    DCD    1768780389
        0x31002e44:    6974616e    nati    DCD    1769234798
        0x31002e48:    72206e6f    on r    DCD    1914728047
        0x31002e4c:    65757165    eque    DCD    1702195557
        0x31002e50:    00007473    st..    DCD    29811
        0x31002e54:    74530000    ..St    DCD    1951596544
        0x31002e58:    206b6361    ack     DCD    543908705
        0x31002e5c:    7265766f    over    DCD    1919252079
        0x31002e60:    776f6c66    flow    DCD    2003790950
        0x31002e64:    00000000    ....    DCD    0
        0x31002e68:    00000000    ....    DCD    0
        0x31002e6c:    64655200    .Red    DCD    1684361728
        0x31002e70:    63657269    irec    DCD    1667592809
        0x31002e74:    63203a74    t: c    DCD    1663056500
        0x31002e78:    74276e61    an't    DCD    1948741217
        0x31002e7c:    65706f20     ope    DCD    1701867296
        0x31002e80:    00203a6e    n: .    DCD    2112110
        0x31002e84:    2074754f    Out     DCD    544503119
        0x31002e88:    6820666f    of h    DCD    1746953839
        0x31002e8c:    20706165    eap     DCD    544235877
        0x31002e90:    6f6d656d    memo    DCD    1869440365
        0x31002e94:    00007972    ry..    DCD    31090
        0x31002e98:    55000000    ...U    DCD    1426063360
        0x31002e9c:    2d726573    ser-    DCD    762471795
        0x31002ea0:    69666564    defi    DCD    1768318308
        0x31002ea4:    2064656e    ned     DCD    543450478
        0x31002ea8:    6e676973    sign    DCD    1852270963
        0x31002eac:    31206c61    al 1    DCD    824208481
        0x31002eb0:    73550000    ..Us    DCD    1934950400
        0x31002eb4:    642d7265    er-d    DCD    1680700005
        0x31002eb8:    6e696665    efin    DCD    1852401253
        0x31002ebc:    73206465    ed s    DCD    1931502693
        0x31002ec0:    616e6769    igna    DCD    1634625385
        0x31002ec4:    0032206c    l 2.    DCD    3285100
        0x31002ec8:    72755000    .Pur    DCD    1920290816
        0x31002ecc:    69762065    e vi    DCD    1769349221
        0x31002ed0:    61757472    rtua    DCD    1635087474
        0x31002ed4:    6e66206c    l fn    DCD    1852186732
        0x31002ed8:    6c616320     cal    DCD    1818321696
        0x31002edc:    0064656c    led.    DCD    6579564
        0x31002ee0:    202b2b43    C++     DCD    539700035
        0x31002ee4:    7262696c    libr    DCD    1919052140
        0x31002ee8:    20797261    ary     DCD    544830049
        0x31002eec:    65637865    exce    DCD    1701017701
        0x31002ef0:    6f697470    ptio    DCD    1869182064
        0x31002ef4:    0000006e    n...    DCD    110

** Section #2 'ER_RW' (SHT_PROGBITS) [SHF_ALLOC + SHF_WRITE]
    Size   : 4 bytes (alignment 4)
    Address: 0x31002ef8


** Section #3 'ER_ZI' (SHT_NOBITS) [SHF_ALLOC + SHF_WRITE]
    Size   : 104 bytes (alignment 4)
    Address: 0x31002efc


** Section #4 '.debug_abbrev' (SHT_PROGBITS)
    Size   : 1004 bytes


** Section #5 '.debug_frame' (SHT_PROGBITS)
    Size   : 4180 bytes


** Section #6 '.debug_info' (SHT_PROGBITS)
    Size   : 6336 bytes


** Section #7 '.debug_line' (SHT_PROGBITS)
    Size   : 2060 bytes


** Section #8 '.debug_loc' (SHT_PROGBITS)
    Size   : 4856 bytes


** Section #9 '.debug_macinfo' (SHT_PROGBITS)
    Size   : 6500 bytes


** Section #10 '.debug_pubnames' (SHT_PROGBITS)
    Size   : 972 bytes


** Section #11 '.symtab' (SHT_SYMTAB)
    Size   : 4768 bytes (alignment 4)
    String table '.strtab'
    Last local symbol no. 205


** Section #12 '.strtab' (SHT_STRTAB)
    Size   : 3136 bytes


** Section #13 '.note' (SHT_NOTE)
    Size   : 28 bytes (alignment 4)


** Section #14 '.comment' (SHT_PROGBITS)
    Size   : 1328 bytes


** Section #15 '.shstrtab' (SHT_STRTAB)
    Size   : 164 bytes


